---
triple:          'x86_64-apple-darwin'
binary-path:     tasks
relocations:
  - { offsetInCU: 0x26, offset: 0x26, size: 0x8, addend: 0x0, symName: __ZN5AlienC2Ei7Vector2, symObjAddr: 0x0, symBinAddr: 0x100000990, symSize: 0x160 }
  - { offsetInCU: 0x39, offset: 0x39, size: 0x8, addend: 0x0, symName: __ZN5Alien11alienImagesE, symObjAddr: 0x12D0, symBinAddr: 0x100015000, symSize: 0x0 }
  - { offsetInCU: 0x200, offset: 0x200, size: 0x8, addend: 0x0, symName: __ZN5AlienC2Ei7Vector2, symObjAddr: 0x0, symBinAddr: 0x100000990, symSize: 0x160 }
  - { offsetInCU: 0x246, offset: 0x246, size: 0x8, addend: 0x0, symName: __ZN5AlienC1Ei7Vector2, symObjAddr: 0x160, symBinAddr: 0x100000AF0, symSize: 0x30 }
  - { offsetInCU: 0x28C, offset: 0x28C, size: 0x8, addend: 0x0, symName: __ZN5Alien4DrawEv, symObjAddr: 0x190, symBinAddr: 0x100000B20, symSize: 0x70 }
  - { offsetInCU: 0x2B2, offset: 0x2B2, size: 0x8, addend: 0x0, symName: __ZN5Alien7GetTypeEv, symObjAddr: 0x200, symBinAddr: 0x100000B90, symSize: 0x10 }
  - { offsetInCU: 0x2D8, offset: 0x2D8, size: 0x8, addend: 0x0, symName: __ZN5Alien12UnloadImagesEv, symObjAddr: 0x210, symBinAddr: 0x100000BA0, symSize: 0x80 }
  - { offsetInCU: 0x30A, offset: 0x30A, size: 0x8, addend: 0x0, symName: __ZN5Alien7getRectEv, symObjAddr: 0x290, symBinAddr: 0x100000C20, symSize: 0x60 }
  - { offsetInCU: 0x330, offset: 0x330, size: 0x8, addend: 0x0, symName: __ZN5Alien6UpdateEi, symObjAddr: 0x2F0, symBinAddr: 0x100000C80, symSize: 0x20 }
  - { offsetInCU: 0x26, offset: 0x38F, size: 0x8, addend: 0x0, symName: __ZN5BlockC2E7Vector2, symObjAddr: 0x0, symBinAddr: 0x100000CA0, symSize: 0x20 }
  - { offsetInCU: 0x90, offset: 0x3F9, size: 0x8, addend: 0x0, symName: __ZN5BlockC2E7Vector2, symObjAddr: 0x0, symBinAddr: 0x100000CA0, symSize: 0x20 }
  - { offsetInCU: 0xC8, offset: 0x431, size: 0x8, addend: 0x0, symName: __ZN5BlockC1E7Vector2, symObjAddr: 0x20, symBinAddr: 0x100000CC0, symSize: 0x30 }
  - { offsetInCU: 0x100, offset: 0x469, size: 0x8, addend: 0x0, symName: __ZN5Block4DrawEv, symObjAddr: 0x50, symBinAddr: 0x100000CF0, symSize: 0x40 }
  - { offsetInCU: 0x126, offset: 0x48F, size: 0x8, addend: 0x0, symName: __ZN5Block7getRectEv, symObjAddr: 0x90, symBinAddr: 0x100000D30, symSize: 0x39 }
  - { offsetInCU: 0xB8BD, offset: 0xBD85, size: 0x8, addend: 0x0, symName: __ZNSt3__124__put_character_sequenceB8ne180100IcNS_11char_traitsIcEEEERNS_13basic_ostreamIT_T0_EES7_PKS4_m, symObjAddr: 0xAD70, symBinAddr: 0x10000BAE0, symSize: 0x1F0 }
  - { offsetInCU: 0xD48E, offset: 0xD956, size: 0x8, addend: 0x0, symName: __ZNSt3__1neB8ne180100IP5LaserEEbRKNS_11__wrap_iterIT_EES7_, symObjAddr: 0x730, symBinAddr: 0x1000014A0, symSize: 0x30 }
  - { offsetInCU: 0xD4D1, offset: 0xD999, size: 0x8, addend: 0x0, symName: __ZNSt3__1neB8ne180100IP8ObstacleEEbRKNS_11__wrap_iterIT_EES7_, symObjAddr: 0x1850, symBinAddr: 0x1000025C0, symSize: 0x30 }
  - { offsetInCU: 0xD514, offset: 0xD9DC, size: 0x8, addend: 0x0, symName: __ZNSt3__1neB8ne180100IP5AlienEEbRKNS_11__wrap_iterIT_EES7_, symObjAddr: 0x1920, symBinAddr: 0x100002690, symSize: 0x30 }
  - { offsetInCU: 0xD557, offset: 0xDA1F, size: 0x8, addend: 0x0, symName: __ZNSt3__1neB8ne180100IP5BlockEEbRKNS_11__wrap_iterIT_EES7_, symObjAddr: 0x2230, symBinAddr: 0x100002FA0, symSize: 0x30 }
  - { offsetInCU: 0xDDAE, offset: 0xE276, size: 0x8, addend: 0x0, symName: __ZNSt3__1lsB8ne180100INS_11char_traitsIcEEEERNS_13basic_ostreamIcT_EES6_PKc, symObjAddr: 0x28C0, symBinAddr: 0x100003630, symSize: 0x40 }
  - { offsetInCU: 0xDDF4, offset: 0xE2BC, size: 0x8, addend: 0x0, symName: __ZNSt3__14endlB8ne180100IcNS_11char_traitsIcEEEERNS_13basic_ostreamIT_T0_EES7_, symObjAddr: 0x2920, symBinAddr: 0x100003690, symSize: 0x50 }
  - { offsetInCU: 0xE4DB, offset: 0xE9A3, size: 0x8, addend: 0x0, symName: __ZNSt3__1eqB8ne180100IP5LaserEEbRKNS_11__wrap_iterIT_EES7_, symObjAddr: 0x2C90, symBinAddr: 0x100003A00, symSize: 0x40 }
  - { offsetInCU: 0xE51E, offset: 0xE9E6, size: 0x8, addend: 0x0, symName: __ZNSt3__1eqB8ne180100IP8ObstacleEEbRKNS_11__wrap_iterIT_EES7_, symObjAddr: 0x2CF0, symBinAddr: 0x100003A60, symSize: 0x40 }
  - { offsetInCU: 0xE561, offset: 0xEA29, size: 0x8, addend: 0x0, symName: __ZNSt3__1eqB8ne180100IP5AlienEEbRKNS_11__wrap_iterIT_EES7_, symObjAddr: 0x2D50, symBinAddr: 0x100003AC0, symSize: 0x40 }
  - { offsetInCU: 0xE5A4, offset: 0xEA6C, size: 0x8, addend: 0x0, symName: __ZNSt3__112__to_addressB8ne180100I5LaserEEPT_S3_, symObjAddr: 0x2DB0, symBinAddr: 0x100003B20, symSize: 0x10 }
  - { offsetInCU: 0xE5D9, offset: 0xEAA1, size: 0x8, addend: 0x0, symName: __ZNSt3__112__to_addressB8ne180100I5BlockEEPT_S3_, symObjAddr: 0x30B0, symBinAddr: 0x100003E20, symSize: 0x10 }
  - { offsetInCU: 0xE60E, offset: 0xEAD6, size: 0x8, addend: 0x0, symName: __ZNSt3__119__libcpp_deallocateB8ne180100EPvmm, symObjAddr: 0x3110, symBinAddr: 0x100003E80, symSize: 0x30 }
  - { offsetInCU: 0xE656, offset: 0xEB1E, size: 0x8, addend: 0x0, symName: __ZNSt3__127__do_deallocate_handle_sizeB8ne180100IJEEEvPvmDpT_, symObjAddr: 0x3140, symBinAddr: 0x100003EB0, symSize: 0x20 }
  - { offsetInCU: 0xE694, offset: 0xEB5C, size: 0x8, addend: 0x0, symName: __ZNSt3__124__libcpp_operator_deleteB8ne180100IJPvEEEvDpT_, symObjAddr: 0x3160, symBinAddr: 0x100003ED0, symSize: 0x20 }
  - { offsetInCU: 0xE6C9, offset: 0xEB91, size: 0x8, addend: 0x0, symName: __ZNSt3__112__to_addressB8ne180100I5AlienEEPT_S3_, symObjAddr: 0x3200, symBinAddr: 0x100003F70, symSize: 0x10 }
  - { offsetInCU: 0xE6FE, offset: 0xEBC6, size: 0x8, addend: 0x0, symName: __ZNSt3__1eqB8ne180100IP5BlockEEbRKNS_11__wrap_iterIT_EES7_, symObjAddr: 0x3250, symBinAddr: 0x100003FC0, symSize: 0x40 }
  - { offsetInCU: 0xE741, offset: 0xEC09, size: 0x8, addend: 0x0, symName: __ZNSt3__112__to_addressB8ne180100I8ObstacleEEPT_S3_, symObjAddr: 0x39F0, symBinAddr: 0x100004760, symSize: 0x10 }
  - { offsetInCU: 0xE776, offset: 0xEC3E, size: 0x8, addend: 0x0, symName: __ZNSt3__1miB8ne180100IPK5LaserS3_EEDTmicldtfp_4baseEcldtfp0_4baseEERKNS_11__wrap_iterIT_EERKNS5_IT0_EE, symObjAddr: 0x4300, symBinAddr: 0x100005070, symSize: 0x40 }
  - { offsetInCU: 0xE7C2, offset: 0xEC8A, size: 0x8, addend: 0x0, symName: __ZNSt3__14moveB8ne180100IP5LaserS2_EET0_T_S4_S3_, symObjAddr: 0x43C0, symBinAddr: 0x100005130, symSize: 0x40 }
  - { offsetInCU: 0xE81C, offset: 0xECE4, size: 0x8, addend: 0x0, symName: __ZNSt3__16__moveB8ne180100INS_17_ClassicAlgPolicyEP5LaserS3_S3_EENS_4pairIT0_T2_EES5_T1_S6_, symObjAddr: 0x4500, symBinAddr: 0x100005270, symSize: 0x40 }
  - { offsetInCU: 0xE888, offset: 0xED50, size: 0x8, addend: 0x0, symName: __ZNSt3__123__dispatch_copy_or_moveB8ne180100INS_17_ClassicAlgPolicyENS_11__move_loopIS1_EENS_14__move_trivialEP5LaserS6_S6_EENS_4pairIT2_T4_EES8_T3_S9_, symObjAddr: 0x4540, symBinAddr: 0x1000052B0, symSize: 0x40 }
  - { offsetInCU: 0xE906, offset: 0xEDCE, size: 0x8, addend: 0x0, symName: __ZNSt3__121__unwrap_and_dispatchB8ne180100INS_10__overloadINS_11__move_loopINS_17_ClassicAlgPolicyEEENS_14__move_trivialEEEP5LaserS8_S8_Li0EEENS_4pairIT0_T2_EESA_T1_SB_, symObjAddr: 0x4580, symBinAddr: 0x1000052F0, symSize: 0xB0 }
  - { offsetInCU: 0xE995, offset: 0xEE5D, size: 0x8, addend: 0x0, symName: __ZNSt3__114__unwrap_rangeB8ne180100IP5LaserS2_EENS_4pairIT0_S4_EET_S6_, symObjAddr: 0x4630, symBinAddr: 0x1000053A0, symSize: 0x50 }
  - { offsetInCU: 0xEBA2, offset: 0xF06A, size: 0x8, addend: 0x0, symName: __ZNSt3__113__unwrap_iterB8ne180100IP5LaserNS_18__unwrap_iter_implIS2_Lb1EEELi0EEEDTclsrT0_8__unwrapclsr3stdE7declvalIT_EEEES6_, symObjAddr: 0x46C0, symBinAddr: 0x100005430, symSize: 0x20 }
  - { offsetInCU: 0xEBE6, offset: 0xF0AE, size: 0x8, addend: 0x0, symName: __ZNSt3__19make_pairB8ne180100IP5LaserS2_EENS_4pairINS_18__unwrap_ref_decayIT_E4typeENS4_IT0_E4typeEEEOS5_OS8_, symObjAddr: 0x46E0, symBinAddr: 0x100005450, symSize: 0x30 }
  - { offsetInCU: 0xEC35, offset: 0xF0FD, size: 0x8, addend: 0x0, symName: __ZNSt3__114__rewrap_rangeB8ne180100IP5LaserS2_EET_S3_T0_, symObjAddr: 0x4710, symBinAddr: 0x100005480, symSize: 0x30 }
  - { offsetInCU: 0xEC81, offset: 0xF149, size: 0x8, addend: 0x0, symName: __ZNSt3__113__rewrap_iterB8ne180100IP5LaserS2_NS_18__unwrap_iter_implIS2_Lb1EEEEET_S5_T0_, symObjAddr: 0x4740, symBinAddr: 0x1000054B0, symSize: 0x40 }
  - { offsetInCU: 0xECD6, offset: 0xF19E, size: 0x8, addend: 0x0, symName: __ZNSt3__119__copy_trivial_implB8ne180100I5LaserS1_EENS_4pairIPT_PT0_EES4_S4_S6_, symObjAddr: 0x4780, symBinAddr: 0x1000054F0, symSize: 0x70 }
  - { offsetInCU: 0xED3E, offset: 0xF206, size: 0x8, addend: 0x0, symName: __ZNSt3__119__constexpr_memmoveB8ne180100I5LaserS1_Li0EEEPT_S3_PT0_NS_15__element_countE, symObjAddr: 0x47F0, symBinAddr: 0x100005560, symSize: 0x50 }
  - { offsetInCU: 0xEDAC, offset: 0xF274, size: 0x8, addend: 0x0, symName: __ZNSt3__19make_pairB8ne180100IRP5LaserS2_EENS_4pairINS_18__unwrap_ref_decayIT_E4typeENS5_IT0_E4typeEEEOS6_OS9_, symObjAddr: 0x4840, symBinAddr: 0x1000055B0, symSize: 0x30 }
  - { offsetInCU: 0xEE4E, offset: 0xF316, size: 0x8, addend: 0x0, symName: __ZNSt3__13maxB8ne180100ImEERKT_S3_S3_, symObjAddr: 0x5190, symBinAddr: 0x100005F00, symSize: 0x30 }
  - { offsetInCU: 0xEE91, offset: 0xF359, size: 0x8, addend: 0x0, symName: __ZNSt3__13minB8ne180100ImEERKT_S3_S3_, symObjAddr: 0x51C0, symBinAddr: 0x100005F30, symSize: 0x30 }
  - { offsetInCU: 0xF0D5, offset: 0xF59D, size: 0x8, addend: 0x0, symName: __ZNSt3__13minB8ne180100ImNS_6__lessIvvEEEERKT_S5_S5_T0_, symObjAddr: 0x5240, symBinAddr: 0x100005FB0, symSize: 0x50 }
  - { offsetInCU: 0xF174, offset: 0xF63C, size: 0x8, addend: 0x0, symName: __ZNSt3__120__throw_length_errorB8ne180100EPKc, symObjAddr: 0x5320, symBinAddr: 0x100006090, symSize: 0x70 }
  - { offsetInCU: 0xF19C, offset: 0xF664, size: 0x8, addend: 0x0, symName: __ZNSt3__13maxB8ne180100ImNS_6__lessIvvEEEERKT_S5_S5_T0_, symObjAddr: 0x5400, symBinAddr: 0x100006170, symSize: 0x50 }
  - { offsetInCU: 0xF1F6, offset: 0xF6BE, size: 0x8, addend: 0x0, symName: __ZNSt3__119__allocate_at_leastB8ne180100INS_9allocatorI8ObstacleEEEENS_19__allocation_resultINS_16allocator_traitsIT_E7pointerEEERS6_m, symObjAddr: 0x5550, symBinAddr: 0x1000062C0, symSize: 0x40 }
  - { offsetInCU: 0xF239, offset: 0xF701, size: 0x8, addend: 0x0, symName: __ZNSt3__117__libcpp_allocateB8ne180100Emm, symObjAddr: 0x56C0, symBinAddr: 0x100006430, symSize: 0x20 }
  - { offsetInCU: 0xF276, offset: 0xF73E, size: 0x8, addend: 0x0, symName: __ZNSt3__121__libcpp_operator_newB8ne180100IJmEEEPvDpT_, symObjAddr: 0x56E0, symBinAddr: 0x100006450, symSize: 0x20 }
  - { offsetInCU: 0xF2AF, offset: 0xF777, size: 0x8, addend: 0x0, symName: __ZNSt3__142__uninitialized_allocator_move_if_noexceptB8ne180100INS_9allocatorI8ObstacleEENS_16reverse_iteratorIPS2_EES6_S6_EET2_RT_T0_T1_S7_, symObjAddr: 0x5760, symBinAddr: 0x1000064D0, symSize: 0x180 }
  - { offsetInCU: 0xF34E, offset: 0xF816, size: 0x8, addend: 0x0, symName: __ZNSt3__14swapB8ne180100IP8ObstacleEENS_9enable_ifIXaasr21is_move_constructibleIT_EE5valuesr18is_move_assignableIS4_EE5valueEvE4typeERS4_S7_, symObjAddr: 0x5930, symBinAddr: 0x1000066A0, symSize: 0x40 }
  - { offsetInCU: 0xF39F, offset: 0xF867, size: 0x8, addend: 0x0, symName: __ZNSt3__122__make_exception_guardB8ne180100INS_29_AllocatorDestroyRangeReverseINS_9allocatorI8ObstacleEENS_16reverse_iteratorIPS3_EEEEEENS_28__exception_guard_exceptionsIT_EESA_, symObjAddr: 0x5980, symBinAddr: 0x1000066F0, symSize: 0x60 }
  - { offsetInCU: 0xF3D4, offset: 0xF89C, size: 0x8, addend: 0x0, symName: __ZNSt3__1neB8ne180100IP8ObstacleS2_EEbRKNS_16reverse_iteratorIT_EERKNS3_IT0_EE, symObjAddr: 0x5A20, symBinAddr: 0x100006790, symSize: 0x40 }
  - { offsetInCU: 0xF420, offset: 0xF8E8, size: 0x8, addend: 0x0, symName: __ZNSt3__112__to_addressB8ne180100INS_16reverse_iteratorIP8ObstacleEEvEEu7__decayIDTclsr19__to_address_helperIT_EE6__callclsr3stdE7declvalIRKS5_EEEEES7_, symObjAddr: 0x5A60, symBinAddr: 0x1000067D0, symSize: 0x20 }
  - { offsetInCU: 0xF47F, offset: 0xF947, size: 0x8, addend: 0x0, symName: __ZNSt3__119__allocator_destroyB8ne180100INS_9allocatorI8ObstacleEENS_16reverse_iteratorINS4_IPS2_EEEES7_EEvRT_T0_T1_, symObjAddr: 0x5D50, symBinAddr: 0x100006AC0, symSize: 0x70 }
  - { offsetInCU: 0xF4E2, offset: 0xF9AA, size: 0x8, addend: 0x0, symName: __ZNSt3__1neB8ne180100INS_16reverse_iteratorIP8ObstacleEES4_EEbRKNS1_IT_EERKNS1_IT0_EE, symObjAddr: 0x5DF0, symBinAddr: 0x100006B60, symSize: 0x50 }
  - { offsetInCU: 0xF52E, offset: 0xF9F6, size: 0x8, addend: 0x0, symName: __ZNSt3__112__to_addressB8ne180100INS_16reverse_iteratorINS1_IP8ObstacleEEEEvEEu7__decayIDTclsr19__to_address_helperIT_EE6__callclsr3stdE7declvalIRKS6_EEEEES8_, symObjAddr: 0x5E40, symBinAddr: 0x100006BB0, symSize: 0x20 }
  - { offsetInCU: 0xF58D, offset: 0xFA55, size: 0x8, addend: 0x0, symName: __ZNSt3__122__make_exception_guardB8ne180100INS_6vectorI8ObstacleNS_9allocatorIS2_EEE16__destroy_vectorEEENS_28__exception_guard_exceptionsIT_EES8_, symObjAddr: 0x6370, symBinAddr: 0x1000070E0, symSize: 0x40 }
  - { offsetInCU: 0xF5C2, offset: 0xFA8A, size: 0x8, addend: 0x0, symName: __ZNSt3__130__uninitialized_allocator_copyB8ne180100INS_9allocatorI8ObstacleEEPS2_S4_S4_EET2_RT_T0_T1_S5_, symObjAddr: 0x6570, symBinAddr: 0x1000072E0, symSize: 0x80 }
  - { offsetInCU: 0xF65F, offset: 0xFB27, size: 0x8, addend: 0x0, symName: __ZNSt3__114__unwrap_rangeB8ne180100IP8ObstacleS2_EENS_4pairIT0_S4_EET_S6_, symObjAddr: 0x65F0, symBinAddr: 0x100007360, symSize: 0x50 }
  - { offsetInCU: 0xF6AB, offset: 0xFB73, size: 0x8, addend: 0x0, symName: __ZNSt3__135__uninitialized_allocator_copy_implB8ne180100INS_9allocatorI8ObstacleEEPS2_S4_S4_EET2_RT_T0_T1_S5_, symObjAddr: 0x6640, symBinAddr: 0x1000073B0, symSize: 0x100 }
  - { offsetInCU: 0xF749, offset: 0xFC11, size: 0x8, addend: 0x0, symName: __ZNSt3__113__unwrap_iterB8ne180100IP8ObstacleNS_18__unwrap_iter_implIS2_Lb1EEELi0EEEDTclsrT0_8__unwrapclsr3stdE7declvalIT_EEEES6_, symObjAddr: 0x6740, symBinAddr: 0x1000074B0, symSize: 0x20 }
  - { offsetInCU: 0xF78D, offset: 0xFC55, size: 0x8, addend: 0x0, symName: __ZNSt3__113__rewrap_iterB8ne180100IP8ObstacleS2_NS_18__unwrap_iter_implIS2_Lb1EEEEET_S5_T0_, symObjAddr: 0x6760, symBinAddr: 0x1000074D0, symSize: 0x40 }
  - { offsetInCU: 0xF7E2, offset: 0xFCAA, size: 0x8, addend: 0x0, symName: __ZNSt3__19make_pairB8ne180100IP8ObstacleS2_EENS_4pairINS_18__unwrap_ref_decayIT_E4typeENS4_IT0_E4typeEEEOS5_OS8_, symObjAddr: 0x67A0, symBinAddr: 0x100007510, symSize: 0x30 }
  - { offsetInCU: 0xF905, offset: 0xFDCD, size: 0x8, addend: 0x0, symName: __ZNSt3__122__make_exception_guardB8ne180100INS_29_AllocatorDestroyRangeReverseINS_9allocatorI8ObstacleEEPS3_EEEENS_28__exception_guard_exceptionsIT_EES8_, symObjAddr: 0x6830, symBinAddr: 0x1000075A0, symSize: 0x60 }
  - { offsetInCU: 0xF93A, offset: 0xFE02, size: 0x8, addend: 0x0, symName: __ZNSt3__122__make_exception_guardB8ne180100INS_6vectorI5BlockNS_9allocatorIS2_EEE16__destroy_vectorEEENS_28__exception_guard_exceptionsIT_EES8_, symObjAddr: 0x6C90, symBinAddr: 0x100007A00, symSize: 0x40 }
  - { offsetInCU: 0xF96F, offset: 0xFE37, size: 0x8, addend: 0x0, symName: __ZNSt3__119__allocate_at_leastB8ne180100INS_9allocatorI5BlockEEEENS_19__allocation_resultINS_16allocator_traitsIT_E7pointerEEERS6_m, symObjAddr: 0x6F10, symBinAddr: 0x100007C80, symSize: 0x40 }
  - { offsetInCU: 0xF9B2, offset: 0xFE7A, size: 0x8, addend: 0x0, symName: __ZNSt3__130__uninitialized_allocator_copyB8ne180100INS_9allocatorI5BlockEEPS2_S4_S4_EET2_RT_T0_T1_S5_, symObjAddr: 0x7020, symBinAddr: 0x100007D90, symSize: 0x80 }
  - { offsetInCU: 0xFA4F, offset: 0xFF17, size: 0x8, addend: 0x0, symName: __ZNSt3__114__unwrap_rangeB8ne180100IP5BlockS2_EENS_4pairIT0_S4_EET_S6_, symObjAddr: 0x7100, symBinAddr: 0x100007E70, symSize: 0x50 }
  - { offsetInCU: 0xFA9B, offset: 0xFF63, size: 0x8, addend: 0x0, symName: __ZNSt3__135__uninitialized_allocator_copy_implB8ne180100INS_9allocatorI5BlockEES2_S2_S2_LPv0EEEPT2_RT_PT0_SA_S6_, symObjAddr: 0x7150, symBinAddr: 0x100007EC0, symSize: 0x30 }
  - { offsetInCU: 0xFB1C, offset: 0xFFE4, size: 0x8, addend: 0x0, symName: __ZNSt3__113__unwrap_iterB8ne180100IP5BlockNS_18__unwrap_iter_implIS2_Lb1EEELi0EEEDTclsrT0_8__unwrapclsr3stdE7declvalIT_EEEES6_, symObjAddr: 0x7180, symBinAddr: 0x100007EF0, symSize: 0x20 }
  - { offsetInCU: 0xFB60, offset: 0x10028, size: 0x8, addend: 0x0, symName: __ZNSt3__113__rewrap_iterB8ne180100IP5BlockS2_NS_18__unwrap_iter_implIS2_Lb1EEEEET_S5_T0_, symObjAddr: 0x71A0, symBinAddr: 0x100007F10, symSize: 0x40 }
  - { offsetInCU: 0xFBB5, offset: 0x1007D, size: 0x8, addend: 0x0, symName: __ZNSt3__19make_pairB8ne180100IP5BlockS2_EENS_4pairINS_18__unwrap_ref_decayIT_E4typeENS4_IT0_E4typeEEEOS5_OS8_, symObjAddr: 0x71E0, symBinAddr: 0x100007F50, symSize: 0x30 }
  - { offsetInCU: 0xFD07, offset: 0x101CF, size: 0x8, addend: 0x0, symName: __ZNSt3__14copyB8ne180100IP5BlockS2_EET0_T_S4_S3_, symObjAddr: 0x7270, symBinAddr: 0x100007FE0, symSize: 0x40 }
  - { offsetInCU: 0xFD61, offset: 0x10229, size: 0x8, addend: 0x0, symName: __ZNSt3__16__copyB8ne180100INS_17_ClassicAlgPolicyEP5BlockS3_S3_EENS_4pairIT0_T2_EES5_T1_S6_, symObjAddr: 0x72B0, symBinAddr: 0x100008020, symSize: 0x40 }
  - { offsetInCU: 0xFDCD, offset: 0x10295, size: 0x8, addend: 0x0, symName: __ZNSt3__123__dispatch_copy_or_moveB8ne180100INS_17_ClassicAlgPolicyENS_11__copy_loopIS1_EENS_14__copy_trivialEP5BlockS6_S6_EENS_4pairIT2_T4_EES8_T3_S9_, symObjAddr: 0x72F0, symBinAddr: 0x100008060, symSize: 0x40 }
  - { offsetInCU: 0xFE4B, offset: 0x10313, size: 0x8, addend: 0x0, symName: __ZNSt3__121__unwrap_and_dispatchB8ne180100INS_10__overloadINS_11__copy_loopINS_17_ClassicAlgPolicyEEENS_14__copy_trivialEEEP5BlockS8_S8_Li0EEENS_4pairIT0_T2_EESA_T1_SB_, symObjAddr: 0x7330, symBinAddr: 0x1000080A0, symSize: 0xB0 }
  - { offsetInCU: 0xFF20, offset: 0x103E8, size: 0x8, addend: 0x0, symName: __ZNSt3__114__rewrap_rangeB8ne180100IP5BlockS2_EET_S3_T0_, symObjAddr: 0x7420, symBinAddr: 0x100008190, symSize: 0x30 }
  - { offsetInCU: 0xFF6C, offset: 0x10434, size: 0x8, addend: 0x0, symName: __ZNSt3__119__copy_trivial_implB8ne180100I5BlockS1_EENS_4pairIPT_PT0_EES4_S4_S6_, symObjAddr: 0x7450, symBinAddr: 0x1000081C0, symSize: 0x70 }
  - { offsetInCU: 0xFFD4, offset: 0x1049C, size: 0x8, addend: 0x0, symName: __ZNSt3__119__constexpr_memmoveB8ne180100I5BlockS1_Li0EEEPT_S3_PT0_NS_15__element_countE, symObjAddr: 0x74C0, symBinAddr: 0x100008230, symSize: 0x50 }
  - { offsetInCU: 0x10042, offset: 0x1050A, size: 0x8, addend: 0x0, symName: __ZNSt3__19make_pairB8ne180100IRP5BlockS2_EENS_4pairINS_18__unwrap_ref_decayIT_E4typeENS5_IT0_E4typeEEEOS6_OS9_, symObjAddr: 0x7510, symBinAddr: 0x100008280, symSize: 0x30 }
  - { offsetInCU: 0x100E4, offset: 0x105AC, size: 0x8, addend: 0x0, symName: __ZNSt3__119__allocator_destroyB8ne180100INS_9allocatorI8ObstacleEENS_16reverse_iteratorIPS2_EES6_EEvRT_T0_T1_, symObjAddr: 0x7700, symBinAddr: 0x100008470, symSize: 0x70 }
  - { offsetInCU: 0x1019A, offset: 0x10662, size: 0x8, addend: 0x0, symName: __ZNSt3__119__allocate_at_leastB8ne180100INS_9allocatorI5AlienEEEENS_19__allocation_resultINS_16allocator_traitsIT_E7pointerEEERS6_m, symObjAddr: 0x7F00, symBinAddr: 0x100008C70, symSize: 0x40 }
  - { offsetInCU: 0x101DD, offset: 0x106A5, size: 0x8, addend: 0x0, symName: __ZNSt3__142__uninitialized_allocator_move_if_noexceptB8ne180100INS_9allocatorI5AlienEENS_16reverse_iteratorIPS2_EES6_S2_vEET1_RT_T0_SA_S7_, symObjAddr: 0x8090, symBinAddr: 0x100008E00, symSize: 0x70 }
  - { offsetInCU: 0x10259, offset: 0x10721, size: 0x8, addend: 0x0, symName: __ZNSt3__14swapB8ne180100IP5AlienEENS_9enable_ifIXaasr21is_move_constructibleIT_EE5valuesr18is_move_assignableIS4_EE5valueEvE4typeERS4_S7_, symObjAddr: 0x8150, symBinAddr: 0x100008EC0, symSize: 0x40 }
  - { offsetInCU: 0x102AA, offset: 0x10772, size: 0x8, addend: 0x0, symName: __ZNSt3__14moveB8ne180100INS_16reverse_iteratorIP5AlienEES4_EET0_T_S6_S5_, symObjAddr: 0x81A0, symBinAddr: 0x100008F10, symSize: 0x80 }
  - { offsetInCU: 0x10304, offset: 0x107CC, size: 0x8, addend: 0x0, symName: __ZNSt3__16__moveB8ne180100INS_17_ClassicAlgPolicyENS_16reverse_iteratorIP5AlienEES5_S5_EENS_4pairIT0_T2_EES7_T1_S8_, symObjAddr: 0x8220, symBinAddr: 0x100008F90, symSize: 0x90 }
  - { offsetInCU: 0x10370, offset: 0x10838, size: 0x8, addend: 0x0, symName: __ZNSt3__123__dispatch_copy_or_moveB8ne180100INS_17_ClassicAlgPolicyENS_11__move_loopIS1_EENS_14__move_trivialENS_16reverse_iteratorIP5AlienEES8_S8_EENS_4pairIT2_T4_EESA_T3_SB_, symObjAddr: 0x82B0, symBinAddr: 0x100009020, symSize: 0x90 }
  - { offsetInCU: 0x103EE, offset: 0x108B6, size: 0x8, addend: 0x0, symName: __ZNSt3__121__unwrap_and_dispatchB8ne180100INS_10__overloadINS_11__move_loopINS_17_ClassicAlgPolicyEEENS_14__move_trivialEEENS_16reverse_iteratorIP5AlienEESA_SA_Li0EEENS_4pairIT0_T2_EESC_T1_SD_, symObjAddr: 0x8340, symBinAddr: 0x1000090B0, symSize: 0x210 }
  - { offsetInCU: 0x1047D, offset: 0x10945, size: 0x8, addend: 0x0, symName: __ZNSt3__114__unwrap_rangeB8ne180100INS_16reverse_iteratorIP5AlienEES4_EENS_4pairIT0_S6_EET_S8_, symObjAddr: 0x8550, symBinAddr: 0x1000092C0, symSize: 0x90 }
  - { offsetInCU: 0x10637, offset: 0x10AFF, size: 0x8, addend: 0x0, symName: __ZNSt3__113__unwrap_iterB8ne180100INS_16reverse_iteratorIP5AlienEENS_18__unwrap_iter_implIS4_Lb0EEELi0EEEDTclsrT0_8__unwrapclsr3stdE7declvalIT_EEEES8_, symObjAddr: 0x8680, symBinAddr: 0x1000093F0, symSize: 0x40 }
  - { offsetInCU: 0x1067B, offset: 0x10B43, size: 0x8, addend: 0x0, symName: __ZNSt3__19make_pairB8ne180100INS_16reverse_iteratorIP5AlienEES4_EENS_4pairINS_18__unwrap_ref_decayIT_E4typeENS6_IT0_E4typeEEEOS7_OSA_, symObjAddr: 0x86C0, symBinAddr: 0x100009430, symSize: 0x30 }
  - { offsetInCU: 0x106CA, offset: 0x10B92, size: 0x8, addend: 0x0, symName: __ZNSt3__114__rewrap_rangeB8ne180100INS_16reverse_iteratorIP5AlienEES4_EET_S5_T0_, symObjAddr: 0x86F0, symBinAddr: 0x100009460, symSize: 0x60 }
  - { offsetInCU: 0x10716, offset: 0x10BDE, size: 0x8, addend: 0x0, symName: __ZNSt3__113__rewrap_iterB8ne180100INS_16reverse_iteratorIP5AlienEES4_NS_18__unwrap_iter_implIS4_Lb0EEEEET_S7_T0_, symObjAddr: 0x8750, symBinAddr: 0x1000094C0, symSize: 0x70 }
  - { offsetInCU: 0x1076B, offset: 0x10C33, size: 0x8, addend: 0x0, symName: __ZNSt3__1neB8ne180100IP5AlienS2_EEbRKNS_16reverse_iteratorIT_EERKNS3_IT0_EE, symObjAddr: 0x87C0, symBinAddr: 0x100009530, symSize: 0x40 }
  - { offsetInCU: 0x108A5, offset: 0x10D6D, size: 0x8, addend: 0x0, symName: __ZNSt3__119__allocate_at_leastB8ne180100INS_9allocatorI5LaserEEEENS_19__allocation_resultINS_16allocator_traitsIT_E7pointerEEERS6_m, symObjAddr: 0x9230, symBinAddr: 0x100009FA0, symSize: 0x40 }
  - { offsetInCU: 0x108E8, offset: 0x10DB0, size: 0x8, addend: 0x0, symName: __ZNSt3__142__uninitialized_allocator_move_if_noexceptB8ne180100INS_9allocatorI5LaserEENS_16reverse_iteratorIPS2_EES6_S2_vEET1_RT_T0_SA_S7_, symObjAddr: 0x93C0, symBinAddr: 0x10000A130, symSize: 0x70 }
  - { offsetInCU: 0x10964, offset: 0x10E2C, size: 0x8, addend: 0x0, symName: __ZNSt3__14swapB8ne180100IP5LaserEENS_9enable_ifIXaasr21is_move_constructibleIT_EE5valuesr18is_move_assignableIS4_EE5valueEvE4typeERS4_S7_, symObjAddr: 0x9480, symBinAddr: 0x10000A1F0, symSize: 0x40 }
  - { offsetInCU: 0x109B5, offset: 0x10E7D, size: 0x8, addend: 0x0, symName: __ZNSt3__14moveB8ne180100INS_16reverse_iteratorIP5LaserEES4_EET0_T_S6_S5_, symObjAddr: 0x94D0, symBinAddr: 0x10000A240, symSize: 0x80 }
  - { offsetInCU: 0x10A0F, offset: 0x10ED7, size: 0x8, addend: 0x0, symName: __ZNSt3__16__moveB8ne180100INS_17_ClassicAlgPolicyENS_16reverse_iteratorIP5LaserEES5_S5_EENS_4pairIT0_T2_EES7_T1_S8_, symObjAddr: 0x9550, symBinAddr: 0x10000A2C0, symSize: 0x90 }
  - { offsetInCU: 0x10A7B, offset: 0x10F43, size: 0x8, addend: 0x0, symName: __ZNSt3__123__dispatch_copy_or_moveB8ne180100INS_17_ClassicAlgPolicyENS_11__move_loopIS1_EENS_14__move_trivialENS_16reverse_iteratorIP5LaserEES8_S8_EENS_4pairIT2_T4_EESA_T3_SB_, symObjAddr: 0x95E0, symBinAddr: 0x10000A350, symSize: 0x90 }
  - { offsetInCU: 0x10AF9, offset: 0x10FC1, size: 0x8, addend: 0x0, symName: __ZNSt3__121__unwrap_and_dispatchB8ne180100INS_10__overloadINS_11__move_loopINS_17_ClassicAlgPolicyEEENS_14__move_trivialEEENS_16reverse_iteratorIP5LaserEESA_SA_Li0EEENS_4pairIT0_T2_EESC_T1_SD_, symObjAddr: 0x9670, symBinAddr: 0x10000A3E0, symSize: 0x210 }
  - { offsetInCU: 0x10B88, offset: 0x11050, size: 0x8, addend: 0x0, symName: __ZNSt3__114__unwrap_rangeB8ne180100INS_16reverse_iteratorIP5LaserEES4_EENS_4pairIT0_S6_EET_S8_, symObjAddr: 0x9880, symBinAddr: 0x10000A5F0, symSize: 0x90 }
  - { offsetInCU: 0x10CA8, offset: 0x11170, size: 0x8, addend: 0x0, symName: __ZNSt3__113__unwrap_iterB8ne180100INS_16reverse_iteratorIP5LaserEENS_18__unwrap_iter_implIS4_Lb0EEELi0EEEDTclsrT0_8__unwrapclsr3stdE7declvalIT_EEEES8_, symObjAddr: 0x99B0, symBinAddr: 0x10000A720, symSize: 0x40 }
  - { offsetInCU: 0x10CEC, offset: 0x111B4, size: 0x8, addend: 0x0, symName: __ZNSt3__19make_pairB8ne180100INS_16reverse_iteratorIP5LaserEES4_EENS_4pairINS_18__unwrap_ref_decayIT_E4typeENS6_IT0_E4typeEEEOS7_OSA_, symObjAddr: 0x99F0, symBinAddr: 0x10000A760, symSize: 0x30 }
  - { offsetInCU: 0x10D3B, offset: 0x11203, size: 0x8, addend: 0x0, symName: __ZNSt3__114__rewrap_rangeB8ne180100INS_16reverse_iteratorIP5LaserEES4_EET_S5_T0_, symObjAddr: 0x9A20, symBinAddr: 0x10000A790, symSize: 0x60 }
  - { offsetInCU: 0x10D87, offset: 0x1124F, size: 0x8, addend: 0x0, symName: __ZNSt3__113__rewrap_iterB8ne180100INS_16reverse_iteratorIP5LaserEES4_NS_18__unwrap_iter_implIS4_Lb0EEEEET_S7_T0_, symObjAddr: 0x9A80, symBinAddr: 0x10000A7F0, symSize: 0x70 }
  - { offsetInCU: 0x10DDC, offset: 0x112A4, size: 0x8, addend: 0x0, symName: __ZNSt3__1neB8ne180100IP5LaserS2_EEbRKNS_16reverse_iteratorIT_EERKNS3_IT0_EE, symObjAddr: 0x9AF0, symBinAddr: 0x10000A860, symSize: 0x40 }
  - { offsetInCU: 0x10E7B, offset: 0x11343, size: 0x8, addend: 0x0, symName: __ZNSt3__1miB8ne180100IPK5AlienS3_EEDTmicldtfp_4baseEcldtfp0_4baseEERKNS_11__wrap_iterIT_EERKNS5_IT0_EE, symObjAddr: 0x9E50, symBinAddr: 0x10000ABC0, symSize: 0x40 }
  - { offsetInCU: 0x10EC7, offset: 0x1138F, size: 0x8, addend: 0x0, symName: __ZNSt3__14moveB8ne180100IP5AlienS2_EET0_T_S4_S3_, symObjAddr: 0x9F10, symBinAddr: 0x10000AC80, symSize: 0x40 }
  - { offsetInCU: 0x10F21, offset: 0x113E9, size: 0x8, addend: 0x0, symName: __ZNSt3__16__moveB8ne180100INS_17_ClassicAlgPolicyEP5AlienS3_S3_EENS_4pairIT0_T2_EES5_T1_S6_, symObjAddr: 0xA030, symBinAddr: 0x10000ADA0, symSize: 0x40 }
  - { offsetInCU: 0x10F8D, offset: 0x11455, size: 0x8, addend: 0x0, symName: __ZNSt3__123__dispatch_copy_or_moveB8ne180100INS_17_ClassicAlgPolicyENS_11__move_loopIS1_EENS_14__move_trivialEP5AlienS6_S6_EENS_4pairIT2_T4_EES8_T3_S9_, symObjAddr: 0xA070, symBinAddr: 0x10000ADE0, symSize: 0x40 }
  - { offsetInCU: 0x1100B, offset: 0x114D3, size: 0x8, addend: 0x0, symName: __ZNSt3__121__unwrap_and_dispatchB8ne180100INS_10__overloadINS_11__move_loopINS_17_ClassicAlgPolicyEEENS_14__move_trivialEEEP5AlienS8_S8_Li0EEENS_4pairIT0_T2_EESA_T1_SB_, symObjAddr: 0xA0B0, symBinAddr: 0x10000AE20, symSize: 0xB0 }
  - { offsetInCU: 0x1109A, offset: 0x11562, size: 0x8, addend: 0x0, symName: __ZNSt3__114__unwrap_rangeB8ne180100IP5AlienS2_EENS_4pairIT0_S4_EET_S6_, symObjAddr: 0xA160, symBinAddr: 0x10000AED0, symSize: 0x50 }
  - { offsetInCU: 0x111E9, offset: 0x116B1, size: 0x8, addend: 0x0, symName: __ZNSt3__113__unwrap_iterB8ne180100IP5AlienNS_18__unwrap_iter_implIS2_Lb1EEELi0EEEDTclsrT0_8__unwrapclsr3stdE7declvalIT_EEEES6_, symObjAddr: 0xA1F0, symBinAddr: 0x10000AF60, symSize: 0x20 }
  - { offsetInCU: 0x1122D, offset: 0x116F5, size: 0x8, addend: 0x0, symName: __ZNSt3__19make_pairB8ne180100IP5AlienS2_EENS_4pairINS_18__unwrap_ref_decayIT_E4typeENS4_IT0_E4typeEEEOS5_OS8_, symObjAddr: 0xA210, symBinAddr: 0x10000AF80, symSize: 0x30 }
  - { offsetInCU: 0x1127C, offset: 0x11744, size: 0x8, addend: 0x0, symName: __ZNSt3__114__rewrap_rangeB8ne180100IP5AlienS2_EET_S3_T0_, symObjAddr: 0xA240, symBinAddr: 0x10000AFB0, symSize: 0x30 }
  - { offsetInCU: 0x112C8, offset: 0x11790, size: 0x8, addend: 0x0, symName: __ZNSt3__113__rewrap_iterB8ne180100IP5AlienS2_NS_18__unwrap_iter_implIS2_Lb1EEEEET_S5_T0_, symObjAddr: 0xA270, symBinAddr: 0x10000AFE0, symSize: 0x40 }
  - { offsetInCU: 0x1131D, offset: 0x117E5, size: 0x8, addend: 0x0, symName: __ZNSt3__119__copy_trivial_implB8ne180100I5AlienS1_EENS_4pairIPT_PT0_EES4_S4_S6_, symObjAddr: 0xA2B0, symBinAddr: 0x10000B020, symSize: 0x80 }
  - { offsetInCU: 0x11385, offset: 0x1184D, size: 0x8, addend: 0x0, symName: __ZNSt3__119__constexpr_memmoveB8ne180100I5AlienS1_Li0EEEPT_S3_PT0_NS_15__element_countE, symObjAddr: 0xA330, symBinAddr: 0x10000B0A0, symSize: 0x50 }
  - { offsetInCU: 0x113F3, offset: 0x118BB, size: 0x8, addend: 0x0, symName: __ZNSt3__19make_pairB8ne180100IRP5AlienS2_EENS_4pairINS_18__unwrap_ref_decayIT_E4typeENS5_IT0_E4typeEEEOS6_OS9_, symObjAddr: 0xA380, symBinAddr: 0x10000B0F0, symSize: 0x30 }
  - { offsetInCU: 0x11495, offset: 0x1195D, size: 0x8, addend: 0x0, symName: __ZNSt3__1miB8ne180100IPK5BlockS3_EEDTmicldtfp_4baseEcldtfp0_4baseEERKNS_11__wrap_iterIT_EERKNS5_IT0_EE, symObjAddr: 0xA570, symBinAddr: 0x10000B2E0, symSize: 0x40 }
  - { offsetInCU: 0x114E1, offset: 0x119A9, size: 0x8, addend: 0x0, symName: __ZNSt3__14moveB8ne180100IP5BlockS2_EET0_T_S4_S3_, symObjAddr: 0xA630, symBinAddr: 0x10000B3A0, symSize: 0x40 }
  - { offsetInCU: 0x1153B, offset: 0x11A03, size: 0x8, addend: 0x0, symName: __ZNSt3__16__moveB8ne180100INS_17_ClassicAlgPolicyEP5BlockS3_S3_EENS_4pairIT0_T2_EES5_T1_S6_, symObjAddr: 0xA750, symBinAddr: 0x10000B4C0, symSize: 0x40 }
  - { offsetInCU: 0x115A7, offset: 0x11A6F, size: 0x8, addend: 0x0, symName: __ZNSt3__123__dispatch_copy_or_moveB8ne180100INS_17_ClassicAlgPolicyENS_11__move_loopIS1_EENS_14__move_trivialEP5BlockS6_S6_EENS_4pairIT2_T4_EES8_T3_S9_, symObjAddr: 0xA790, symBinAddr: 0x10000B500, symSize: 0x40 }
  - { offsetInCU: 0x11625, offset: 0x11AED, size: 0x8, addend: 0x0, symName: __ZNSt3__121__unwrap_and_dispatchB8ne180100INS_10__overloadINS_11__move_loopINS_17_ClassicAlgPolicyEEENS_14__move_trivialEEEP5BlockS8_S8_Li0EEENS_4pairIT0_T2_EESA_T1_SB_, symObjAddr: 0xA7D0, symBinAddr: 0x10000B540, symSize: 0xB0 }
  - { offsetInCU: 0x116B4, offset: 0x11B7C, size: 0x8, addend: 0x0, symName: __ZNSt3__116__pad_and_outputB8ne180100IcNS_11char_traitsIcEEEENS_19ostreambuf_iteratorIT_T0_EES6_PKS4_S8_S8_RNS_8ios_baseES4_, symObjAddr: 0xAFB0, symBinAddr: 0x10000BD20, symSize: 0x220 }
  - { offsetInCU: 0x11784, offset: 0x11C4C, size: 0x8, addend: 0x0, symName: __ZNSt3__112__to_addressB8ne180100IKcEEPT_S3_, symObjAddr: 0xB4A0, symBinAddr: 0x10000C210, symSize: 0x10 }
  - { offsetInCU: 0x117EC, offset: 0x11CB4, size: 0x8, addend: 0x0, symName: __ZNSt3__19use_facetB8ne180100INS_5ctypeIcEEEERKT_RKNS_6localeE, symObjAddr: 0xB6F0, symBinAddr: 0x10000C460, symSize: 0x30 }
  - { offsetInCU: 0x11CB9, offset: 0x12181, size: 0x8, addend: 0x0, symName: __ZNSt3__118__constexpr_strlenB8ne180100EPKc, symObjAddr: 0xB750, symBinAddr: 0x10000C4C0, symSize: 0x20 }
  - { offsetInCU: 0x1224F, offset: 0x12717, size: 0x8, addend: 0x0, symName: __ZSt28__throw_bad_array_new_lengthB8ne180100v, symObjAddr: 0x5680, symBinAddr: 0x1000063F0, symSize: 0x40 }
  - { offsetInCU: 0x12F42, offset: 0x1340A, size: 0x8, addend: 0x0, symName: __ZNSt3__16vectorI8ObstacleNS_9allocatorIS1_EEE26__swap_out_circular_bufferERNS_14__split_bufferIS1_RS3_EE, symObjAddr: 0x4FD0, symBinAddr: 0x100005D40, symSize: 0x120 }
  - { offsetInCU: 0x1303C, offset: 0x13504, size: 0x8, addend: 0x0, symName: __ZNSt3__16vectorI5AlienNS_9allocatorIS1_EEE26__swap_out_circular_bufferERNS_14__split_bufferIS1_RS3_EE, symObjAddr: 0x7BC0, symBinAddr: 0x100008930, symSize: 0x120 }
  - { offsetInCU: 0x13093, offset: 0x1355B, size: 0x8, addend: 0x0, symName: __ZNSt3__16vectorI5LaserNS_9allocatorIS1_EEE26__swap_out_circular_bufferERNS_14__split_bufferIS1_RS3_EE, symObjAddr: 0x8EE0, symBinAddr: 0x100009C50, symSize: 0x120 }
  - { offsetInCU: 0x15A19, offset: 0x15EE1, size: 0x8, addend: 0x0, symName: __ZN4GameC2Ev, symObjAddr: 0x0, symBinAddr: 0x100000D70, symSize: 0x1F0 }
  - { offsetInCU: 0x15A43, offset: 0x15F0B, size: 0x8, addend: 0x0, symName: __ZNSt3__16vectorI8ObstacleNS_9allocatorIS1_EEEC1B8ne180100Ev, symObjAddr: 0x1F0, symBinAddr: 0x100000F60, symSize: 0x20 }
  - { offsetInCU: 0x15A6C, offset: 0x15F34, size: 0x8, addend: 0x0, symName: __ZNSt3__16vectorI5AlienNS_9allocatorIS1_EEEC1B8ne180100Ev, symObjAddr: 0x210, symBinAddr: 0x100000F80, symSize: 0x20 }
  - { offsetInCU: 0x15A95, offset: 0x15F5D, size: 0x8, addend: 0x0, symName: __ZNSt3__16vectorI5LaserNS_9allocatorIS1_EEEC1B8ne180100Ev, symObjAddr: 0x230, symBinAddr: 0x100000FA0, symSize: 0x20 }
  - { offsetInCU: 0x15ABE, offset: 0x15F86, size: 0x8, addend: 0x0, symName: __ZN4Game8InitGameEv, symObjAddr: 0x250, symBinAddr: 0x100000FC0, symSize: 0xD0 }
  - { offsetInCU: 0x15AE6, offset: 0x15FAE, size: 0x8, addend: 0x0, symName: __ZNSt3__16vectorI5LaserNS_9allocatorIS1_EEED1B8ne180100Ev, symObjAddr: 0x320, symBinAddr: 0x100001090, symSize: 0x20 }
  - { offsetInCU: 0x15B0F, offset: 0x15FD7, size: 0x8, addend: 0x0, symName: __ZNSt3__16vectorI5AlienNS_9allocatorIS1_EEED1B8ne180100Ev, symObjAddr: 0x340, symBinAddr: 0x1000010B0, symSize: 0x20 }
  - { offsetInCU: 0x15B38, offset: 0x16000, size: 0x8, addend: 0x0, symName: __ZNSt3__16vectorI8ObstacleNS_9allocatorIS1_EEED1B8ne180100Ev, symObjAddr: 0x360, symBinAddr: 0x1000010D0, symSize: 0x20 }
  - { offsetInCU: 0x15B61, offset: 0x16029, size: 0x8, addend: 0x0, symName: __ZN4GameC1Ev, symObjAddr: 0x380, symBinAddr: 0x1000010F0, symSize: 0x20 }
  - { offsetInCU: 0x15B8B, offset: 0x16053, size: 0x8, addend: 0x0, symName: __ZN4GameD2Ev, symObjAddr: 0x3A0, symBinAddr: 0x100001110, symSize: 0x120 }
  - { offsetInCU: 0x15BB5, offset: 0x1607D, size: 0x8, addend: 0x0, symName: __ZN4GameD1Ev, symObjAddr: 0x4D0, symBinAddr: 0x100001240, symSize: 0x20 }
  - { offsetInCU: 0x15BDF, offset: 0x160A7, size: 0x8, addend: 0x0, symName: __ZN4Game6UpdateEv, symObjAddr: 0x4F0, symBinAddr: 0x100001260, symSize: 0x1E0 }
  - { offsetInCU: 0x15CC5, offset: 0x1618D, size: 0x8, addend: 0x0, symName: __ZNSt3__16vectorI5LaserNS_9allocatorIS1_EEE5beginB8ne180100Ev, symObjAddr: 0x6D0, symBinAddr: 0x100001440, symSize: 0x30 }
  - { offsetInCU: 0x15CEC, offset: 0x161B4, size: 0x8, addend: 0x0, symName: __ZNSt3__16vectorI5LaserNS_9allocatorIS1_EEE3endB8ne180100Ev, symObjAddr: 0x700, symBinAddr: 0x100001470, symSize: 0x30 }
  - { offsetInCU: 0x15D13, offset: 0x161DB, size: 0x8, addend: 0x0, symName: __ZNKSt3__111__wrap_iterIP5LaserEdeB8ne180100Ev, symObjAddr: 0x760, symBinAddr: 0x1000014D0, symSize: 0x20 }
  - { offsetInCU: 0x15D38, offset: 0x16200, size: 0x8, addend: 0x0, symName: __ZNSt3__111__wrap_iterIP5LaserEppB8ne180100Ev, symObjAddr: 0x780, symBinAddr: 0x1000014F0, symSize: 0x20 }
  - { offsetInCU: 0x15D5D, offset: 0x16225, size: 0x8, addend: 0x0, symName: __ZN4Game10MoveAliensEv, symObjAddr: 0x7A0, symBinAddr: 0x100001510, symSize: 0x120 }
  - { offsetInCU: 0x15DD4, offset: 0x1629C, size: 0x8, addend: 0x0, symName: __ZN4Game15AlienShootLaserEv, symObjAddr: 0x8C0, symBinAddr: 0x100001630, symSize: 0x140 }
  - { offsetInCU: 0x15E32, offset: 0x162FA, size: 0x8, addend: 0x0, symName: __ZN4Game20DeleteInactiveLasersEv, symObjAddr: 0xA00, symBinAddr: 0x100001770, symSize: 0x150 }
  - { offsetInCU: 0x15E90, offset: 0x16358, size: 0x8, addend: 0x0, symName: __ZN4Game18CheckForCollisionsEv, symObjAddr: 0xB50, symBinAddr: 0x1000018C0, symSize: 0xA50 }
  - { offsetInCU: 0x16123, offset: 0x165EB, size: 0x8, addend: 0x0, symName: __ZN4Game5ResetEv, symObjAddr: 0x15A0, symBinAddr: 0x100002310, symSize: 0x60 }
  - { offsetInCU: 0x1614B, offset: 0x16613, size: 0x8, addend: 0x0, symName: __ZN4Game4DrawEv, symObjAddr: 0x1600, symBinAddr: 0x100002370, symSize: 0x1F0 }
  - { offsetInCU: 0x162BE, offset: 0x16786, size: 0x8, addend: 0x0, symName: __ZNSt3__16vectorI8ObstacleNS_9allocatorIS1_EEE5beginB8ne180100Ev, symObjAddr: 0x17F0, symBinAddr: 0x100002560, symSize: 0x30 }
  - { offsetInCU: 0x162E5, offset: 0x167AD, size: 0x8, addend: 0x0, symName: __ZNSt3__16vectorI8ObstacleNS_9allocatorIS1_EEE3endB8ne180100Ev, symObjAddr: 0x1820, symBinAddr: 0x100002590, symSize: 0x30 }
  - { offsetInCU: 0x1630C, offset: 0x167D4, size: 0x8, addend: 0x0, symName: __ZNKSt3__111__wrap_iterIP8ObstacleEdeB8ne180100Ev, symObjAddr: 0x1880, symBinAddr: 0x1000025F0, symSize: 0x20 }
  - { offsetInCU: 0x16331, offset: 0x167F9, size: 0x8, addend: 0x0, symName: __ZNSt3__111__wrap_iterIP8ObstacleEppB8ne180100Ev, symObjAddr: 0x18A0, symBinAddr: 0x100002610, symSize: 0x20 }
  - { offsetInCU: 0x16356, offset: 0x1681E, size: 0x8, addend: 0x0, symName: __ZNSt3__16vectorI5AlienNS_9allocatorIS1_EEE5beginB8ne180100Ev, symObjAddr: 0x18C0, symBinAddr: 0x100002630, symSize: 0x30 }
  - { offsetInCU: 0x1637D, offset: 0x16845, size: 0x8, addend: 0x0, symName: __ZNSt3__16vectorI5AlienNS_9allocatorIS1_EEE3endB8ne180100Ev, symObjAddr: 0x18F0, symBinAddr: 0x100002660, symSize: 0x30 }
  - { offsetInCU: 0x163A4, offset: 0x1686C, size: 0x8, addend: 0x0, symName: __ZNKSt3__111__wrap_iterIP5AlienEdeB8ne180100Ev, symObjAddr: 0x1950, symBinAddr: 0x1000026C0, symSize: 0x20 }
  - { offsetInCU: 0x163C9, offset: 0x16891, size: 0x8, addend: 0x0, symName: __ZNSt3__111__wrap_iterIP5AlienEppB8ne180100Ev, symObjAddr: 0x1970, symBinAddr: 0x1000026E0, symSize: 0x20 }
  - { offsetInCU: 0x163EE, offset: 0x168B6, size: 0x8, addend: 0x0, symName: __ZN4Game11HandleInputEv, symObjAddr: 0x1990, symBinAddr: 0x100002700, symSize: 0xB0 }
  - { offsetInCU: 0x16414, offset: 0x168DC, size: 0x8, addend: 0x0, symName: __ZNKSt3__111__wrap_iterIP5LaserEptB8ne180100Ev, symObjAddr: 0x1A40, symBinAddr: 0x1000027B0, symSize: 0x20 }
  - { offsetInCU: 0x16439, offset: 0x16901, size: 0x8, addend: 0x0, symName: __ZNSt3__16vectorI5LaserNS_9allocatorIS1_EEE5eraseB8ne180100ENS_11__wrap_iterIPKS1_EE, symObjAddr: 0x1A60, symBinAddr: 0x1000027D0, symSize: 0x90 }
  - { offsetInCU: 0x16493, offset: 0x1695B, size: 0x8, addend: 0x0, symName: __ZNSt3__111__wrap_iterIPK5LaserEC1B8ne180100IPS1_Li0EEERKNS0_IT_EE, symObjAddr: 0x1AF0, symBinAddr: 0x100002860, symSize: 0x30 }
  - { offsetInCU: 0x164D9, offset: 0x169A1, size: 0x8, addend: 0x0, symName: __ZN4Game15CreateObstaclesEv, symObjAddr: 0x1B20, symBinAddr: 0x100002890, symSize: 0x150 }
  - { offsetInCU: 0x16543, offset: 0x16A0B, size: 0x8, addend: 0x0, symName: __ZNSt3__16vectorINS0_IiNS_9allocatorIiEEEENS1_IS3_EEEixB8ne180100Em, symObjAddr: 0x1C70, symBinAddr: 0x1000029E0, symSize: 0x20 }
  - { offsetInCU: 0x16579, offset: 0x16A41, size: 0x8, addend: 0x0, symName: __ZNKSt3__16vectorIiNS_9allocatorIiEEE4sizeB8ne180100Ev, symObjAddr: 0x1C90, symBinAddr: 0x100002A00, symSize: 0x20 }
  - { offsetInCU: 0x1659E, offset: 0x16A66, size: 0x8, addend: 0x0, symName: __ZNSt3__16vectorI8ObstacleNS_9allocatorIS1_EEE9push_backB8ne180100EOS1_, symObjAddr: 0x1CB0, symBinAddr: 0x100002A20, symSize: 0x80 }
  - { offsetInCU: 0x165E3, offset: 0x16AAB, size: 0x8, addend: 0x0, symName: __ZN8ObstacleD1Ev, symObjAddr: 0x1D30, symBinAddr: 0x100002AA0, symSize: 0x20 }
  - { offsetInCU: 0x1660D, offset: 0x16AD5, size: 0x8, addend: 0x0, symName: __ZNSt3__16vectorI8ObstacleNS_9allocatorIS1_EEEC1ERKS4_, symObjAddr: 0x1D50, symBinAddr: 0x100002AC0, symSize: 0x30 }
  - { offsetInCU: 0x16647, offset: 0x16B0F, size: 0x8, addend: 0x0, symName: __ZN4Game12CreateAliensEv, symObjAddr: 0x1D80, symBinAddr: 0x100002AF0, symSize: 0x160 }
  - { offsetInCU: 0x166DC, offset: 0x16BA4, size: 0x8, addend: 0x0, symName: __ZNSt3__16vectorI5AlienNS_9allocatorIS1_EEE9push_backB8ne180100EOS1_, symObjAddr: 0x1EE0, symBinAddr: 0x100002C50, symSize: 0x80 }
  - { offsetInCU: 0x16721, offset: 0x16BE9, size: 0x8, addend: 0x0, symName: __ZN4Game14MoveDownAliensEi, symObjAddr: 0x1F60, symBinAddr: 0x100002CD0, symSize: 0x90 }
  - { offsetInCU: 0x167A6, offset: 0x16C6E, size: 0x8, addend: 0x0, symName: __ZNKSt3__16vectorI5AlienNS_9allocatorIS1_EEE5emptyB8ne180100Ev, symObjAddr: 0x1FF0, symBinAddr: 0x100002D60, symSize: 0x20 }
  - { offsetInCU: 0x167CB, offset: 0x16C93, size: 0x8, addend: 0x0, symName: __ZNKSt3__16vectorI5AlienNS_9allocatorIS1_EEE4sizeB8ne180100Ev, symObjAddr: 0x2010, symBinAddr: 0x100002D80, symSize: 0x30 }
  - { offsetInCU: 0x167F0, offset: 0x16CB8, size: 0x8, addend: 0x0, symName: __ZNSt3__16vectorI5AlienNS_9allocatorIS1_EEEixB8ne180100Em, symObjAddr: 0x2040, symBinAddr: 0x100002DB0, symSize: 0x20 }
  - { offsetInCU: 0x16826, offset: 0x16CEE, size: 0x8, addend: 0x0, symName: __ZNSt3__16vectorI5LaserNS_9allocatorIS1_EEE9push_backB8ne180100EOS1_, symObjAddr: 0x2060, symBinAddr: 0x100002DD0, symSize: 0x80 }
  - { offsetInCU: 0x1686B, offset: 0x16D33, size: 0x8, addend: 0x0, symName: __ZNKSt3__111__wrap_iterIP5AlienEptB8ne180100Ev, symObjAddr: 0x20E0, symBinAddr: 0x100002E50, symSize: 0x20 }
  - { offsetInCU: 0x16890, offset: 0x16D58, size: 0x8, addend: 0x0, symName: __ZN4Game17checkForHighscoreEv, symObjAddr: 0x2100, symBinAddr: 0x100002E70, symSize: 0x40 }
  - { offsetInCU: 0x168B8, offset: 0x16D80, size: 0x8, addend: 0x0, symName: __ZNSt3__16vectorI5AlienNS_9allocatorIS1_EEE5eraseB8ne180100ENS_11__wrap_iterIPKS1_EE, symObjAddr: 0x2140, symBinAddr: 0x100002EB0, symSize: 0x90 }
  - { offsetInCU: 0x16912, offset: 0x16DDA, size: 0x8, addend: 0x0, symName: __ZNSt3__111__wrap_iterIPK5AlienEC1B8ne180100IPS1_Li0EEERKNS0_IT_EE, symObjAddr: 0x21D0, symBinAddr: 0x100002F40, symSize: 0x30 }
  - { offsetInCU: 0x16958, offset: 0x16E20, size: 0x8, addend: 0x0, symName: __ZNSt3__16vectorI5BlockNS_9allocatorIS1_EEE5beginB8ne180100Ev, symObjAddr: 0x2200, symBinAddr: 0x100002F70, symSize: 0x30 }
  - { offsetInCU: 0x1697F, offset: 0x16E47, size: 0x8, addend: 0x0, symName: __ZNSt3__16vectorI5BlockNS_9allocatorIS1_EEE3endB8ne180100Ev, symObjAddr: 0x2260, symBinAddr: 0x100002FD0, symSize: 0x30 }
  - { offsetInCU: 0x169A6, offset: 0x16E6E, size: 0x8, addend: 0x0, symName: __ZNKSt3__111__wrap_iterIP5BlockEptB8ne180100Ev, symObjAddr: 0x2290, symBinAddr: 0x100003000, symSize: 0x20 }
  - { offsetInCU: 0x169CB, offset: 0x16E93, size: 0x8, addend: 0x0, symName: __ZNSt3__16vectorI5BlockNS_9allocatorIS1_EEE5eraseB8ne180100ENS_11__wrap_iterIPKS1_EE, symObjAddr: 0x22B0, symBinAddr: 0x100003020, symSize: 0x90 }
  - { offsetInCU: 0x16A25, offset: 0x16EED, size: 0x8, addend: 0x0, symName: __ZNSt3__111__wrap_iterIPK5BlockEC1B8ne180100IPS1_Li0EEERKNS0_IT_EE, symObjAddr: 0x2340, symBinAddr: 0x1000030B0, symSize: 0x30 }
  - { offsetInCU: 0x16A6B, offset: 0x16F33, size: 0x8, addend: 0x0, symName: __ZNSt3__111__wrap_iterIP5BlockEppB8ne180100Ev, symObjAddr: 0x2370, symBinAddr: 0x1000030E0, symSize: 0x20 }
  - { offsetInCU: 0x16A90, offset: 0x16F58, size: 0x8, addend: 0x0, symName: __ZN4Game8GameOverEv, symObjAddr: 0x2390, symBinAddr: 0x100003100, symSize: 0x20 }
  - { offsetInCU: 0x16AB8, offset: 0x16F80, size: 0x8, addend: 0x0, symName: __ZNSt3__111__wrap_iterIP5BlockEppB8ne180100Ei, symObjAddr: 0x23B0, symBinAddr: 0x100003120, symSize: 0x30 }
  - { offsetInCU: 0x16AF6, offset: 0x16FBE, size: 0x8, addend: 0x0, symName: __ZNSt3__16vectorI8ObstacleNS_9allocatorIS1_EEEaSB8ne180100EOS4_, symObjAddr: 0x23E0, symBinAddr: 0x100003150, symSize: 0x30 }
  - { offsetInCU: 0x16B2C, offset: 0x16FF4, size: 0x8, addend: 0x0, symName: __ZNSt3__16vectorI5AlienNS_9allocatorIS1_EEEaSB8ne180100EOS4_, symObjAddr: 0x2410, symBinAddr: 0x100003180, symSize: 0x30 }
  - { offsetInCU: 0x16B62, offset: 0x1702A, size: 0x8, addend: 0x0, symName: __ZN4Game21loadHighscoreFromFileEv, symObjAddr: 0x2440, symBinAddr: 0x1000031B0, symSize: 0x160 }
  - { offsetInCU: 0x16BAB, offset: 0x17073, size: 0x8, addend: 0x0, symName: __ZN4Game19saveHighscoreToFileEi, symObjAddr: 0x25A0, symBinAddr: 0x100003310, symSize: 0x140 }
  - { offsetInCU: 0x16C95, offset: 0x1715D, size: 0x8, addend: 0x0, symName: __ZNSt3__114basic_ofstreamIcNS_11char_traitsIcEEEC1EPKcj, symObjAddr: 0x26E0, symBinAddr: 0x100003450, symSize: 0x160 }
  - { offsetInCU: 0x16CDE, offset: 0x171A6, size: 0x8, addend: 0x0, symName: __ZNKSt3__114basic_ofstreamIcNS_11char_traitsIcEEE7is_openEv, symObjAddr: 0x2840, symBinAddr: 0x1000035B0, symSize: 0x30 }
  - { offsetInCU: 0x16D05, offset: 0x171CD, size: 0x8, addend: 0x0, symName: __ZNSt3__114basic_ofstreamIcNS_11char_traitsIcEEE5closeEv, symObjAddr: 0x2870, symBinAddr: 0x1000035E0, symSize: 0x50 }
  - { offsetInCU: 0x16D2C, offset: 0x171F4, size: 0x8, addend: 0x0, symName: __ZNSt3__113basic_ostreamIcNS_11char_traitsIcEEElsB8ne180100EPFRS3_S4_E, symObjAddr: 0x2900, symBinAddr: 0x100003670, symSize: 0x20 }
  - { offsetInCU: 0x16D64, offset: 0x1722C, size: 0x8, addend: 0x0, symName: __ZNSt3__114basic_ofstreamIcNS_11char_traitsIcEEED1Ev, symObjAddr: 0x2970, symBinAddr: 0x1000036E0, symSize: 0x40 }
  - { offsetInCU: 0x16E2A, offset: 0x172F2, size: 0x8, addend: 0x0, symName: __ZNSt3__114basic_ifstreamIcNS_11char_traitsIcEEEC1EPKcj, symObjAddr: 0x29B0, symBinAddr: 0x100003720, symSize: 0x160 }
  - { offsetInCU: 0x16E73, offset: 0x1733B, size: 0x8, addend: 0x0, symName: __ZNKSt3__114basic_ifstreamIcNS_11char_traitsIcEEE7is_openEv, symObjAddr: 0x2B10, symBinAddr: 0x100003880, symSize: 0x30 }
  - { offsetInCU: 0x16E9A, offset: 0x17362, size: 0x8, addend: 0x0, symName: __ZNSt3__114basic_ifstreamIcNS_11char_traitsIcEEE5closeEv, symObjAddr: 0x2B40, symBinAddr: 0x1000038B0, symSize: 0x50 }
  - { offsetInCU: 0x16EC6, offset: 0x1738E, size: 0x8, addend: 0x0, symName: __ZNSt3__114basic_ifstreamIcNS_11char_traitsIcEEED1Ev, symObjAddr: 0x2B90, symBinAddr: 0x100003900, symSize: 0x40 }
  - { offsetInCU: 0x16EF2, offset: 0x173BA, size: 0x8, addend: 0x0, symName: __ZNSt3__16vectorI5AlienNS_9allocatorIS1_EEE5clearB8ne180100Ev, symObjAddr: 0x2BD0, symBinAddr: 0x100003940, symSize: 0x40 }
  - { offsetInCU: 0x16F26, offset: 0x173EE, size: 0x8, addend: 0x0, symName: __ZNSt3__16vectorI5LaserNS_9allocatorIS1_EEE5clearB8ne180100Ev, symObjAddr: 0x2C10, symBinAddr: 0x100003980, symSize: 0x40 }
  - { offsetInCU: 0x16F5A, offset: 0x17422, size: 0x8, addend: 0x0, symName: __ZNSt3__16vectorI8ObstacleNS_9allocatorIS1_EEE5clearB8ne180100Ev, symObjAddr: 0x2C50, symBinAddr: 0x1000039C0, symSize: 0x40 }
  - { offsetInCU: 0x16F8E, offset: 0x17456, size: 0x8, addend: 0x0, symName: __ZNKSt3__111__wrap_iterIP5LaserE4baseB8ne180100Ev, symObjAddr: 0x2CD0, symBinAddr: 0x100003A40, symSize: 0x20 }
  - { offsetInCU: 0x16FB3, offset: 0x1747B, size: 0x8, addend: 0x0, symName: __ZNKSt3__111__wrap_iterIP8ObstacleE4baseB8ne180100Ev, symObjAddr: 0x2D30, symBinAddr: 0x100003AA0, symSize: 0x20 }
  - { offsetInCU: 0x16FD8, offset: 0x174A0, size: 0x8, addend: 0x0, symName: __ZNKSt3__111__wrap_iterIP5AlienE4baseB8ne180100Ev, symObjAddr: 0x2D90, symBinAddr: 0x100003B00, symSize: 0x20 }
  - { offsetInCU: 0x16FFD, offset: 0x174C5, size: 0x8, addend: 0x0, symName: __ZNSt3__111__wrap_iterIPK5LaserEC2B8ne180100IPS1_Li0EEERKNS0_IT_EE, symObjAddr: 0x2DC0, symBinAddr: 0x100003B30, symSize: 0x40 }
  - { offsetInCU: 0x17043, offset: 0x1750B, size: 0x8, addend: 0x0, symName: __ZN8ObstacleD2Ev, symObjAddr: 0x2E00, symBinAddr: 0x100003B70, symSize: 0x20 }
  - { offsetInCU: 0x1706D, offset: 0x17535, size: 0x8, addend: 0x0, symName: __ZNSt3__16vectorI5BlockNS_9allocatorIS1_EEED1B8ne180100Ev, symObjAddr: 0x2E20, symBinAddr: 0x100003B90, symSize: 0x20 }
  - { offsetInCU: 0x17096, offset: 0x1755E, size: 0x8, addend: 0x0, symName: __ZNSt3__16vectorI5BlockNS_9allocatorIS1_EEED2B8ne180100Ev, symObjAddr: 0x2E40, symBinAddr: 0x100003BB0, symSize: 0x40 }
  - { offsetInCU: 0x170BF, offset: 0x17587, size: 0x8, addend: 0x0, symName: __ZNSt3__16vectorI5BlockNS_9allocatorIS1_EEE16__destroy_vectorC1B8ne180100ERS4_, symObjAddr: 0x2E80, symBinAddr: 0x100003BF0, symSize: 0x30 }
  - { offsetInCU: 0x170F7, offset: 0x175BF, size: 0x8, addend: 0x0, symName: __ZNSt3__16vectorI5BlockNS_9allocatorIS1_EEE16__destroy_vectorclB8ne180100Ev, symObjAddr: 0x2EB0, symBinAddr: 0x100003C20, symSize: 0x80 }
  - { offsetInCU: 0x1711C, offset: 0x175E4, size: 0x8, addend: 0x0, symName: __ZNSt3__16vectorI5BlockNS_9allocatorIS1_EEE16__destroy_vectorC2B8ne180100ERS4_, symObjAddr: 0x2F30, symBinAddr: 0x100003CA0, symSize: 0x20 }
  - { offsetInCU: 0x17154, offset: 0x1761C, size: 0x8, addend: 0x0, symName: __ZNSt3__16vectorI5BlockNS_9allocatorIS1_EEE7__clearB8ne180100Ev, symObjAddr: 0x2F50, symBinAddr: 0x100003CC0, symSize: 0x20 }
  - { offsetInCU: 0x17179, offset: 0x17641, size: 0x8, addend: 0x0, symName: __ZNKSt3__16vectorI5BlockNS_9allocatorIS1_EEE17__annotate_deleteB8ne180100Ev, symObjAddr: 0x2F70, symBinAddr: 0x100003CE0, symSize: 0x10 }
  - { offsetInCU: 0x1719E, offset: 0x17666, size: 0x8, addend: 0x0, symName: __ZNSt3__116allocator_traitsINS_9allocatorI5BlockEEE10deallocateB8ne180100ERS3_PS2_m, symObjAddr: 0x2F80, symBinAddr: 0x100003CF0, symSize: 0x30 }
  - { offsetInCU: 0x171E0, offset: 0x176A8, size: 0x8, addend: 0x0, symName: __ZNSt3__16vectorI5BlockNS_9allocatorIS1_EEE7__allocB8ne180100Ev, symObjAddr: 0x2FB0, symBinAddr: 0x100003D20, symSize: 0x20 }
  - { offsetInCU: 0x17205, offset: 0x176CD, size: 0x8, addend: 0x0, symName: __ZNKSt3__16vectorI5BlockNS_9allocatorIS1_EEE8capacityB8ne180100Ev, symObjAddr: 0x2FD0, symBinAddr: 0x100003D40, symSize: 0x30 }
  - { offsetInCU: 0x1722A, offset: 0x176F2, size: 0x8, addend: 0x0, symName: __ZNSt3__16vectorI5BlockNS_9allocatorIS1_EEE22__base_destruct_at_endB8ne180100EPS1_, symObjAddr: 0x3000, symBinAddr: 0x100003D70, symSize: 0x80 }
  - { offsetInCU: 0x1726D, offset: 0x17735, size: 0x8, addend: 0x0, symName: __ZNSt3__116allocator_traitsINS_9allocatorI5BlockEEE7destroyB8ne180100IS2_vEEvRS3_PT_, symObjAddr: 0x3080, symBinAddr: 0x100003DF0, symSize: 0x30 }
  - { offsetInCU: 0x172AA, offset: 0x17772, size: 0x8, addend: 0x0, symName: __ZNSt3__19allocatorI5BlockE7destroyB8ne180100EPS1_, symObjAddr: 0x30C0, symBinAddr: 0x100003E30, symSize: 0x10 }
  - { offsetInCU: 0x172DD, offset: 0x177A5, size: 0x8, addend: 0x0, symName: __ZNSt3__19allocatorI5BlockE10deallocateB8ne180100EPS1_m, symObjAddr: 0x30D0, symBinAddr: 0x100003E40, symSize: 0x40 }
  - { offsetInCU: 0x1731E, offset: 0x177E6, size: 0x8, addend: 0x0, symName: __ZNSt3__117__compressed_pairIP5BlockNS_9allocatorIS1_EEE6secondB8ne180100Ev, symObjAddr: 0x3180, symBinAddr: 0x100003EF0, symSize: 0x20 }
  - { offsetInCU: 0x17343, offset: 0x1780B, size: 0x8, addend: 0x0, symName: __ZNSt3__122__compressed_pair_elemINS_9allocatorI5BlockEELi1ELb1EE5__getB8ne180100Ev, symObjAddr: 0x31A0, symBinAddr: 0x100003F10, symSize: 0x10 }
  - { offsetInCU: 0x17368, offset: 0x17830, size: 0x8, addend: 0x0, symName: __ZNKSt3__16vectorI5BlockNS_9allocatorIS1_EEE9__end_capB8ne180100Ev, symObjAddr: 0x31B0, symBinAddr: 0x100003F20, symSize: 0x20 }
  - { offsetInCU: 0x1738D, offset: 0x17855, size: 0x8, addend: 0x0, symName: __ZNKSt3__117__compressed_pairIP5BlockNS_9allocatorIS1_EEE5firstB8ne180100Ev, symObjAddr: 0x31D0, symBinAddr: 0x100003F40, symSize: 0x20 }
  - { offsetInCU: 0x173B2, offset: 0x1787A, size: 0x8, addend: 0x0, symName: __ZNKSt3__122__compressed_pair_elemIP5BlockLi0ELb0EE5__getB8ne180100Ev, symObjAddr: 0x31F0, symBinAddr: 0x100003F60, symSize: 0x10 }
  - { offsetInCU: 0x173D7, offset: 0x1789F, size: 0x8, addend: 0x0, symName: __ZNSt3__111__wrap_iterIPK5AlienEC2B8ne180100IPS1_Li0EEERKNS0_IT_EE, symObjAddr: 0x3210, symBinAddr: 0x100003F80, symSize: 0x40 }
  - { offsetInCU: 0x1741D, offset: 0x178E5, size: 0x8, addend: 0x0, symName: __ZNKSt3__111__wrap_iterIP5BlockE4baseB8ne180100Ev, symObjAddr: 0x3290, symBinAddr: 0x100004000, symSize: 0x20 }
  - { offsetInCU: 0x17442, offset: 0x1790A, size: 0x8, addend: 0x0, symName: __ZNSt3__111__wrap_iterIPK5BlockEC2B8ne180100IPS1_Li0EEERKNS0_IT_EE, symObjAddr: 0x32B0, symBinAddr: 0x100004020, symSize: 0x40 }
  - { offsetInCU: 0x17488, offset: 0x17950, size: 0x8, addend: 0x0, symName: __ZNSt3__114basic_ofstreamIcNS_11char_traitsIcEEED2Ev, symObjAddr: 0x32F0, symBinAddr: 0x100004060, symSize: 0x60 }
  - { offsetInCU: 0x174C0, offset: 0x17988, size: 0x8, addend: 0x0, symName: __ZTv0_n24_NSt3__114basic_ofstreamIcNS_11char_traitsIcEEED1Ev, symObjAddr: 0x3350, symBinAddr: 0x1000040C0, symSize: 0x20 }
  - { offsetInCU: 0x174D7, offset: 0x1799F, size: 0x8, addend: 0x0, symName: __ZNSt3__114basic_ifstreamIcNS_11char_traitsIcEEED2Ev, symObjAddr: 0x3370, symBinAddr: 0x1000040E0, symSize: 0x60 }
  - { offsetInCU: 0x1750F, offset: 0x179D7, size: 0x8, addend: 0x0, symName: __ZTv0_n24_NSt3__114basic_ifstreamIcNS_11char_traitsIcEEED1Ev, symObjAddr: 0x33D0, symBinAddr: 0x100004140, symSize: 0x20 }
  - { offsetInCU: 0x17526, offset: 0x179EE, size: 0x8, addend: 0x0, symName: __ZNSt3__16vectorI8ObstacleNS_9allocatorIS1_EEEC2B8ne180100Ev, symObjAddr: 0x33F0, symBinAddr: 0x100004160, symSize: 0x50 }
  - { offsetInCU: 0x1755B, offset: 0x17A23, size: 0x8, addend: 0x0, symName: __ZNSt3__117__compressed_pairIP8ObstacleNS_9allocatorIS1_EEEC1B8ne180100IDnNS_18__default_init_tagEEEOT_OT0_, symObjAddr: 0x3440, symBinAddr: 0x1000041B0, symSize: 0x30 }
  - { offsetInCU: 0x175B2, offset: 0x17A7A, size: 0x8, addend: 0x0, symName: __ZNSt3__117__compressed_pairIP8ObstacleNS_9allocatorIS1_EEEC2B8ne180100IDnNS_18__default_init_tagEEEOT_OT0_, symObjAddr: 0x3470, symBinAddr: 0x1000041E0, symSize: 0x40 }
  - { offsetInCU: 0x17609, offset: 0x17AD1, size: 0x8, addend: 0x0, symName: __ZNSt3__122__compressed_pair_elemIP8ObstacleLi0ELb0EEC2B8ne180100IDnvEEOT_, symObjAddr: 0x34B0, symBinAddr: 0x100004220, symSize: 0x20 }
  - { offsetInCU: 0x1764A, offset: 0x17B12, size: 0x8, addend: 0x0, symName: __ZNSt3__122__compressed_pair_elemINS_9allocatorI8ObstacleEELi1ELb1EEC2B8ne180100ENS_18__default_init_tagE, symObjAddr: 0x34D0, symBinAddr: 0x100004240, symSize: 0x20 }
  - { offsetInCU: 0x1767E, offset: 0x17B46, size: 0x8, addend: 0x0, symName: __ZNSt3__19allocatorI8ObstacleEC2B8ne180100Ev, symObjAddr: 0x34F0, symBinAddr: 0x100004260, symSize: 0x20 }
  - { offsetInCU: 0x176A7, offset: 0x17B6F, size: 0x8, addend: 0x0, symName: __ZNSt3__116__non_trivial_ifILb1ENS_9allocatorI8ObstacleEEEC2B8ne180100Ev, symObjAddr: 0x3510, symBinAddr: 0x100004280, symSize: 0x10 }
  - { offsetInCU: 0x176D0, offset: 0x17B98, size: 0x8, addend: 0x0, symName: __ZNSt3__16vectorI5AlienNS_9allocatorIS1_EEEC2B8ne180100Ev, symObjAddr: 0x3520, symBinAddr: 0x100004290, symSize: 0x50 }
  - { offsetInCU: 0x176F9, offset: 0x17BC1, size: 0x8, addend: 0x0, symName: __ZNSt3__117__compressed_pairIP5AlienNS_9allocatorIS1_EEEC1B8ne180100IDnNS_18__default_init_tagEEEOT_OT0_, symObjAddr: 0x3570, symBinAddr: 0x1000042E0, symSize: 0x30 }
  - { offsetInCU: 0x17750, offset: 0x17C18, size: 0x8, addend: 0x0, symName: __ZNSt3__117__compressed_pairIP5AlienNS_9allocatorIS1_EEEC2B8ne180100IDnNS_18__default_init_tagEEEOT_OT0_, symObjAddr: 0x35A0, symBinAddr: 0x100004310, symSize: 0x40 }
  - { offsetInCU: 0x177A7, offset: 0x17C6F, size: 0x8, addend: 0x0, symName: __ZNSt3__122__compressed_pair_elemIP5AlienLi0ELb0EEC2B8ne180100IDnvEEOT_, symObjAddr: 0x35E0, symBinAddr: 0x100004350, symSize: 0x20 }
  - { offsetInCU: 0x177E8, offset: 0x17CB0, size: 0x8, addend: 0x0, symName: __ZNSt3__122__compressed_pair_elemINS_9allocatorI5AlienEELi1ELb1EEC2B8ne180100ENS_18__default_init_tagE, symObjAddr: 0x3600, symBinAddr: 0x100004370, symSize: 0x20 }
  - { offsetInCU: 0x1781C, offset: 0x17CE4, size: 0x8, addend: 0x0, symName: __ZNSt3__19allocatorI5AlienEC2B8ne180100Ev, symObjAddr: 0x3620, symBinAddr: 0x100004390, symSize: 0x20 }
  - { offsetInCU: 0x17845, offset: 0x17D0D, size: 0x8, addend: 0x0, symName: __ZNSt3__116__non_trivial_ifILb1ENS_9allocatorI5AlienEEEC2B8ne180100Ev, symObjAddr: 0x3640, symBinAddr: 0x1000043B0, symSize: 0x10 }
  - { offsetInCU: 0x1786E, offset: 0x17D36, size: 0x8, addend: 0x0, symName: __ZNSt3__16vectorI5LaserNS_9allocatorIS1_EEEC2B8ne180100Ev, symObjAddr: 0x3650, symBinAddr: 0x1000043C0, symSize: 0x50 }
  - { offsetInCU: 0x17897, offset: 0x17D5F, size: 0x8, addend: 0x0, symName: __ZNSt3__117__compressed_pairIP5LaserNS_9allocatorIS1_EEEC1B8ne180100IDnNS_18__default_init_tagEEEOT_OT0_, symObjAddr: 0x36A0, symBinAddr: 0x100004410, symSize: 0x30 }
  - { offsetInCU: 0x178EE, offset: 0x17DB6, size: 0x8, addend: 0x0, symName: __ZNSt3__117__compressed_pairIP5LaserNS_9allocatorIS1_EEEC2B8ne180100IDnNS_18__default_init_tagEEEOT_OT0_, symObjAddr: 0x36D0, symBinAddr: 0x100004440, symSize: 0x40 }
  - { offsetInCU: 0x17945, offset: 0x17E0D, size: 0x8, addend: 0x0, symName: __ZNSt3__122__compressed_pair_elemIP5LaserLi0ELb0EEC2B8ne180100IDnvEEOT_, symObjAddr: 0x3710, symBinAddr: 0x100004480, symSize: 0x20 }
  - { offsetInCU: 0x17986, offset: 0x17E4E, size: 0x8, addend: 0x0, symName: __ZNSt3__122__compressed_pair_elemINS_9allocatorI5LaserEELi1ELb1EEC2B8ne180100ENS_18__default_init_tagE, symObjAddr: 0x3730, symBinAddr: 0x1000044A0, symSize: 0x20 }
  - { offsetInCU: 0x179BA, offset: 0x17E82, size: 0x8, addend: 0x0, symName: __ZNSt3__19allocatorI5LaserEC2B8ne180100Ev, symObjAddr: 0x3750, symBinAddr: 0x1000044C0, symSize: 0x20 }
  - { offsetInCU: 0x179E3, offset: 0x17EAB, size: 0x8, addend: 0x0, symName: __ZNSt3__116__non_trivial_ifILb1ENS_9allocatorI5LaserEEEC2B8ne180100Ev, symObjAddr: 0x3770, symBinAddr: 0x1000044E0, symSize: 0x10 }
  - { offsetInCU: 0x17A0C, offset: 0x17ED4, size: 0x8, addend: 0x0, symName: __ZNSt3__16vectorI8ObstacleNS_9allocatorIS1_EEED2B8ne180100Ev, symObjAddr: 0x3780, symBinAddr: 0x1000044F0, symSize: 0x40 }
  - { offsetInCU: 0x17A35, offset: 0x17EFD, size: 0x8, addend: 0x0, symName: __ZNSt3__16vectorI8ObstacleNS_9allocatorIS1_EEE16__destroy_vectorC1B8ne180100ERS4_, symObjAddr: 0x37C0, symBinAddr: 0x100004530, symSize: 0x30 }
  - { offsetInCU: 0x17A6D, offset: 0x17F35, size: 0x8, addend: 0x0, symName: __ZNSt3__16vectorI8ObstacleNS_9allocatorIS1_EEE16__destroy_vectorclB8ne180100Ev, symObjAddr: 0x37F0, symBinAddr: 0x100004560, symSize: 0x80 }
  - { offsetInCU: 0x17A92, offset: 0x17F5A, size: 0x8, addend: 0x0, symName: __ZNSt3__16vectorI8ObstacleNS_9allocatorIS1_EEE16__destroy_vectorC2B8ne180100ERS4_, symObjAddr: 0x3870, symBinAddr: 0x1000045E0, symSize: 0x20 }
  - { offsetInCU: 0x17ACA, offset: 0x17F92, size: 0x8, addend: 0x0, symName: __ZNSt3__16vectorI8ObstacleNS_9allocatorIS1_EEE7__clearB8ne180100Ev, symObjAddr: 0x3890, symBinAddr: 0x100004600, symSize: 0x20 }
  - { offsetInCU: 0x17AEF, offset: 0x17FB7, size: 0x8, addend: 0x0, symName: __ZNKSt3__16vectorI8ObstacleNS_9allocatorIS1_EEE17__annotate_deleteB8ne180100Ev, symObjAddr: 0x38B0, symBinAddr: 0x100004620, symSize: 0x10 }
  - { offsetInCU: 0x17B14, offset: 0x17FDC, size: 0x8, addend: 0x0, symName: __ZNSt3__116allocator_traitsINS_9allocatorI8ObstacleEEE10deallocateB8ne180100ERS3_PS2_m, symObjAddr: 0x38C0, symBinAddr: 0x100004630, symSize: 0x30 }
  - { offsetInCU: 0x17B56, offset: 0x1801E, size: 0x8, addend: 0x0, symName: __ZNSt3__16vectorI8ObstacleNS_9allocatorIS1_EEE7__allocB8ne180100Ev, symObjAddr: 0x38F0, symBinAddr: 0x100004660, symSize: 0x20 }
  - { offsetInCU: 0x17B7B, offset: 0x18043, size: 0x8, addend: 0x0, symName: __ZNKSt3__16vectorI8ObstacleNS_9allocatorIS1_EEE8capacityB8ne180100Ev, symObjAddr: 0x3910, symBinAddr: 0x100004680, symSize: 0x30 }
  - { offsetInCU: 0x17BA0, offset: 0x18068, size: 0x8, addend: 0x0, symName: __ZNSt3__16vectorI8ObstacleNS_9allocatorIS1_EEE22__base_destruct_at_endB8ne180100EPS1_, symObjAddr: 0x3940, symBinAddr: 0x1000046B0, symSize: 0x80 }
  - { offsetInCU: 0x17BE3, offset: 0x180AB, size: 0x8, addend: 0x0, symName: __ZNSt3__116allocator_traitsINS_9allocatorI8ObstacleEEE7destroyB8ne180100IS2_vEEvRS3_PT_, symObjAddr: 0x39C0, symBinAddr: 0x100004730, symSize: 0x30 }
  - { offsetInCU: 0x17C20, offset: 0x180E8, size: 0x8, addend: 0x0, symName: __ZNSt3__19allocatorI8ObstacleE7destroyB8ne180100EPS1_, symObjAddr: 0x3A00, symBinAddr: 0x100004770, symSize: 0x20 }
  - { offsetInCU: 0x17C53, offset: 0x1811B, size: 0x8, addend: 0x0, symName: __ZNSt3__19allocatorI8ObstacleE10deallocateB8ne180100EPS1_m, symObjAddr: 0x3A20, symBinAddr: 0x100004790, symSize: 0x40 }
  - { offsetInCU: 0x17C94, offset: 0x1815C, size: 0x8, addend: 0x0, symName: __ZNSt3__117__compressed_pairIP8ObstacleNS_9allocatorIS1_EEE6secondB8ne180100Ev, symObjAddr: 0x3A60, symBinAddr: 0x1000047D0, symSize: 0x20 }
  - { offsetInCU: 0x17CB9, offset: 0x18181, size: 0x8, addend: 0x0, symName: __ZNSt3__122__compressed_pair_elemINS_9allocatorI8ObstacleEELi1ELb1EE5__getB8ne180100Ev, symObjAddr: 0x3A80, symBinAddr: 0x1000047F0, symSize: 0x10 }
  - { offsetInCU: 0x17CDE, offset: 0x181A6, size: 0x8, addend: 0x0, symName: __ZNKSt3__16vectorI8ObstacleNS_9allocatorIS1_EEE9__end_capB8ne180100Ev, symObjAddr: 0x3A90, symBinAddr: 0x100004800, symSize: 0x20 }
  - { offsetInCU: 0x17D03, offset: 0x181CB, size: 0x8, addend: 0x0, symName: __ZNKSt3__117__compressed_pairIP8ObstacleNS_9allocatorIS1_EEE5firstB8ne180100Ev, symObjAddr: 0x3AB0, symBinAddr: 0x100004820, symSize: 0x20 }
  - { offsetInCU: 0x17D28, offset: 0x181F0, size: 0x8, addend: 0x0, symName: __ZNKSt3__122__compressed_pair_elemIP8ObstacleLi0ELb0EE5__getB8ne180100Ev, symObjAddr: 0x3AD0, symBinAddr: 0x100004840, symSize: 0x10 }
  - { offsetInCU: 0x17D4D, offset: 0x18215, size: 0x8, addend: 0x0, symName: __ZNSt3__16vectorI5AlienNS_9allocatorIS1_EEED2B8ne180100Ev, symObjAddr: 0x3AE0, symBinAddr: 0x100004850, symSize: 0x40 }
  - { offsetInCU: 0x17D76, offset: 0x1823E, size: 0x8, addend: 0x0, symName: __ZNSt3__16vectorI5AlienNS_9allocatorIS1_EEE16__destroy_vectorC1B8ne180100ERS4_, symObjAddr: 0x3B20, symBinAddr: 0x100004890, symSize: 0x30 }
  - { offsetInCU: 0x17DAE, offset: 0x18276, size: 0x8, addend: 0x0, symName: __ZNSt3__16vectorI5AlienNS_9allocatorIS1_EEE16__destroy_vectorclB8ne180100Ev, symObjAddr: 0x3B50, symBinAddr: 0x1000048C0, symSize: 0x80 }
  - { offsetInCU: 0x17DD3, offset: 0x1829B, size: 0x8, addend: 0x0, symName: __ZNSt3__16vectorI5AlienNS_9allocatorIS1_EEE16__destroy_vectorC2B8ne180100ERS4_, symObjAddr: 0x3BD0, symBinAddr: 0x100004940, symSize: 0x20 }
  - { offsetInCU: 0x17E0B, offset: 0x182D3, size: 0x8, addend: 0x0, symName: __ZNSt3__16vectorI5AlienNS_9allocatorIS1_EEE7__clearB8ne180100Ev, symObjAddr: 0x3BF0, symBinAddr: 0x100004960, symSize: 0x20 }
  - { offsetInCU: 0x17E30, offset: 0x182F8, size: 0x8, addend: 0x0, symName: __ZNKSt3__16vectorI5AlienNS_9allocatorIS1_EEE17__annotate_deleteB8ne180100Ev, symObjAddr: 0x3C10, symBinAddr: 0x100004980, symSize: 0x10 }
  - { offsetInCU: 0x17E55, offset: 0x1831D, size: 0x8, addend: 0x0, symName: __ZNSt3__116allocator_traitsINS_9allocatorI5AlienEEE10deallocateB8ne180100ERS3_PS2_m, symObjAddr: 0x3C20, symBinAddr: 0x100004990, symSize: 0x30 }
  - { offsetInCU: 0x17E97, offset: 0x1835F, size: 0x8, addend: 0x0, symName: __ZNSt3__16vectorI5AlienNS_9allocatorIS1_EEE7__allocB8ne180100Ev, symObjAddr: 0x3C50, symBinAddr: 0x1000049C0, symSize: 0x20 }
  - { offsetInCU: 0x17EBC, offset: 0x18384, size: 0x8, addend: 0x0, symName: __ZNKSt3__16vectorI5AlienNS_9allocatorIS1_EEE8capacityB8ne180100Ev, symObjAddr: 0x3C70, symBinAddr: 0x1000049E0, symSize: 0x40 }
  - { offsetInCU: 0x17EE1, offset: 0x183A9, size: 0x8, addend: 0x0, symName: __ZNSt3__16vectorI5AlienNS_9allocatorIS1_EEE22__base_destruct_at_endB8ne180100EPS1_, symObjAddr: 0x3CB0, symBinAddr: 0x100004A20, symSize: 0x80 }
  - { offsetInCU: 0x17F24, offset: 0x183EC, size: 0x8, addend: 0x0, symName: __ZNSt3__116allocator_traitsINS_9allocatorI5AlienEEE7destroyB8ne180100IS2_vEEvRS3_PT_, symObjAddr: 0x3D30, symBinAddr: 0x100004AA0, symSize: 0x30 }
  - { offsetInCU: 0x17F61, offset: 0x18429, size: 0x8, addend: 0x0, symName: __ZNSt3__19allocatorI5AlienE7destroyB8ne180100EPS1_, symObjAddr: 0x3D60, symBinAddr: 0x100004AD0, symSize: 0x10 }
  - { offsetInCU: 0x17F94, offset: 0x1845C, size: 0x8, addend: 0x0, symName: __ZNSt3__19allocatorI5AlienE10deallocateB8ne180100EPS1_m, symObjAddr: 0x3D70, symBinAddr: 0x100004AE0, symSize: 0x50 }
  - { offsetInCU: 0x17FD5, offset: 0x1849D, size: 0x8, addend: 0x0, symName: __ZNSt3__117__compressed_pairIP5AlienNS_9allocatorIS1_EEE6secondB8ne180100Ev, symObjAddr: 0x3DC0, symBinAddr: 0x100004B30, symSize: 0x20 }
  - { offsetInCU: 0x17FFA, offset: 0x184C2, size: 0x8, addend: 0x0, symName: __ZNSt3__122__compressed_pair_elemINS_9allocatorI5AlienEELi1ELb1EE5__getB8ne180100Ev, symObjAddr: 0x3DE0, symBinAddr: 0x100004B50, symSize: 0x10 }
  - { offsetInCU: 0x1801F, offset: 0x184E7, size: 0x8, addend: 0x0, symName: __ZNKSt3__16vectorI5AlienNS_9allocatorIS1_EEE9__end_capB8ne180100Ev, symObjAddr: 0x3DF0, symBinAddr: 0x100004B60, symSize: 0x20 }
  - { offsetInCU: 0x18044, offset: 0x1850C, size: 0x8, addend: 0x0, symName: __ZNKSt3__117__compressed_pairIP5AlienNS_9allocatorIS1_EEE5firstB8ne180100Ev, symObjAddr: 0x3E10, symBinAddr: 0x100004B80, symSize: 0x20 }
  - { offsetInCU: 0x18069, offset: 0x18531, size: 0x8, addend: 0x0, symName: __ZNKSt3__122__compressed_pair_elemIP5AlienLi0ELb0EE5__getB8ne180100Ev, symObjAddr: 0x3E30, symBinAddr: 0x100004BA0, symSize: 0x10 }
  - { offsetInCU: 0x1808E, offset: 0x18556, size: 0x8, addend: 0x0, symName: __ZNSt3__16vectorI5LaserNS_9allocatorIS1_EEED2B8ne180100Ev, symObjAddr: 0x3E40, symBinAddr: 0x100004BB0, symSize: 0x40 }
  - { offsetInCU: 0x180B7, offset: 0x1857F, size: 0x8, addend: 0x0, symName: __ZNSt3__16vectorI5LaserNS_9allocatorIS1_EEE16__destroy_vectorC1B8ne180100ERS4_, symObjAddr: 0x3E80, symBinAddr: 0x100004BF0, symSize: 0x30 }
  - { offsetInCU: 0x180EF, offset: 0x185B7, size: 0x8, addend: 0x0, symName: __ZNSt3__16vectorI5LaserNS_9allocatorIS1_EEE16__destroy_vectorclB8ne180100Ev, symObjAddr: 0x3EB0, symBinAddr: 0x100004C20, symSize: 0x80 }
  - { offsetInCU: 0x18114, offset: 0x185DC, size: 0x8, addend: 0x0, symName: __ZNSt3__16vectorI5LaserNS_9allocatorIS1_EEE16__destroy_vectorC2B8ne180100ERS4_, symObjAddr: 0x3F30, symBinAddr: 0x100004CA0, symSize: 0x20 }
  - { offsetInCU: 0x1814C, offset: 0x18614, size: 0x8, addend: 0x0, symName: __ZNSt3__16vectorI5LaserNS_9allocatorIS1_EEE7__clearB8ne180100Ev, symObjAddr: 0x3F50, symBinAddr: 0x100004CC0, symSize: 0x20 }
  - { offsetInCU: 0x18171, offset: 0x18639, size: 0x8, addend: 0x0, symName: __ZNKSt3__16vectorI5LaserNS_9allocatorIS1_EEE17__annotate_deleteB8ne180100Ev, symObjAddr: 0x3F70, symBinAddr: 0x100004CE0, symSize: 0x10 }
  - { offsetInCU: 0x18196, offset: 0x1865E, size: 0x8, addend: 0x0, symName: __ZNSt3__116allocator_traitsINS_9allocatorI5LaserEEE10deallocateB8ne180100ERS3_PS2_m, symObjAddr: 0x3F80, symBinAddr: 0x100004CF0, symSize: 0x30 }
  - { offsetInCU: 0x181D8, offset: 0x186A0, size: 0x8, addend: 0x0, symName: __ZNSt3__16vectorI5LaserNS_9allocatorIS1_EEE7__allocB8ne180100Ev, symObjAddr: 0x3FB0, symBinAddr: 0x100004D20, symSize: 0x20 }
  - { offsetInCU: 0x181FD, offset: 0x186C5, size: 0x8, addend: 0x0, symName: __ZNKSt3__16vectorI5LaserNS_9allocatorIS1_EEE8capacityB8ne180100Ev, symObjAddr: 0x3FD0, symBinAddr: 0x100004D40, symSize: 0x30 }
  - { offsetInCU: 0x18222, offset: 0x186EA, size: 0x8, addend: 0x0, symName: __ZNSt3__16vectorI5LaserNS_9allocatorIS1_EEE22__base_destruct_at_endB8ne180100EPS1_, symObjAddr: 0x4000, symBinAddr: 0x100004D70, symSize: 0x80 }
  - { offsetInCU: 0x18265, offset: 0x1872D, size: 0x8, addend: 0x0, symName: __ZNSt3__116allocator_traitsINS_9allocatorI5LaserEEE7destroyB8ne180100IS2_vEEvRS3_PT_, symObjAddr: 0x4080, symBinAddr: 0x100004DF0, symSize: 0x30 }
  - { offsetInCU: 0x182A2, offset: 0x1876A, size: 0x8, addend: 0x0, symName: __ZNSt3__19allocatorI5LaserE7destroyB8ne180100EPS1_, symObjAddr: 0x40B0, symBinAddr: 0x100004E20, symSize: 0x10 }
  - { offsetInCU: 0x182D5, offset: 0x1879D, size: 0x8, addend: 0x0, symName: __ZNSt3__19allocatorI5LaserE10deallocateB8ne180100EPS1_m, symObjAddr: 0x40C0, symBinAddr: 0x100004E30, symSize: 0x40 }
  - { offsetInCU: 0x18316, offset: 0x187DE, size: 0x8, addend: 0x0, symName: __ZNSt3__117__compressed_pairIP5LaserNS_9allocatorIS1_EEE6secondB8ne180100Ev, symObjAddr: 0x4100, symBinAddr: 0x100004E70, symSize: 0x20 }
  - { offsetInCU: 0x1833B, offset: 0x18803, size: 0x8, addend: 0x0, symName: __ZNSt3__122__compressed_pair_elemINS_9allocatorI5LaserEELi1ELb1EE5__getB8ne180100Ev, symObjAddr: 0x4120, symBinAddr: 0x100004E90, symSize: 0x10 }
  - { offsetInCU: 0x18360, offset: 0x18828, size: 0x8, addend: 0x0, symName: __ZNKSt3__16vectorI5LaserNS_9allocatorIS1_EEE9__end_capB8ne180100Ev, symObjAddr: 0x4130, symBinAddr: 0x100004EA0, symSize: 0x20 }
  - { offsetInCU: 0x18385, offset: 0x1884D, size: 0x8, addend: 0x0, symName: __ZNKSt3__117__compressed_pairIP5LaserNS_9allocatorIS1_EEE5firstB8ne180100Ev, symObjAddr: 0x4150, symBinAddr: 0x100004EC0, symSize: 0x20 }
  - { offsetInCU: 0x183AA, offset: 0x18872, size: 0x8, addend: 0x0, symName: __ZNKSt3__122__compressed_pair_elemIP5LaserLi0ELb0EE5__getB8ne180100Ev, symObjAddr: 0x4170, symBinAddr: 0x100004EE0, symSize: 0x10 }
  - { offsetInCU: 0x183CF, offset: 0x18897, size: 0x8, addend: 0x0, symName: __ZNSt3__16vectorI5LaserNS_9allocatorIS1_EEE11__make_iterB8ne180100EPS1_, symObjAddr: 0x4180, symBinAddr: 0x100004EF0, symSize: 0x30 }
  - { offsetInCU: 0x18403, offset: 0x188CB, size: 0x8, addend: 0x0, symName: __ZNSt3__111__wrap_iterIP5LaserEC1B8ne180100ES2_, symObjAddr: 0x41B0, symBinAddr: 0x100004F20, symSize: 0x30 }
  - { offsetInCU: 0x1843A, offset: 0x18902, size: 0x8, addend: 0x0, symName: __ZNSt3__111__wrap_iterIP5LaserEC2B8ne180100ES2_, symObjAddr: 0x41E0, symBinAddr: 0x100004F50, symSize: 0x20 }
  - { offsetInCU: 0x18471, offset: 0x18939, size: 0x8, addend: 0x0, symName: __ZNSt3__16vectorI8ObstacleNS_9allocatorIS1_EEE11__make_iterB8ne180100EPS1_, symObjAddr: 0x4200, symBinAddr: 0x100004F70, symSize: 0x30 }
  - { offsetInCU: 0x184A5, offset: 0x1896D, size: 0x8, addend: 0x0, symName: __ZNSt3__111__wrap_iterIP8ObstacleEC1B8ne180100ES2_, symObjAddr: 0x4230, symBinAddr: 0x100004FA0, symSize: 0x30 }
  - { offsetInCU: 0x184DC, offset: 0x189A4, size: 0x8, addend: 0x0, symName: __ZNSt3__111__wrap_iterIP8ObstacleEC2B8ne180100ES2_, symObjAddr: 0x4260, symBinAddr: 0x100004FD0, symSize: 0x20 }
  - { offsetInCU: 0x18513, offset: 0x189DB, size: 0x8, addend: 0x0, symName: __ZNSt3__16vectorI5AlienNS_9allocatorIS1_EEE11__make_iterB8ne180100EPS1_, symObjAddr: 0x4280, symBinAddr: 0x100004FF0, symSize: 0x30 }
  - { offsetInCU: 0x18547, offset: 0x18A0F, size: 0x8, addend: 0x0, symName: __ZNSt3__111__wrap_iterIP5AlienEC1B8ne180100ES2_, symObjAddr: 0x42B0, symBinAddr: 0x100005020, symSize: 0x30 }
  - { offsetInCU: 0x1857E, offset: 0x18A46, size: 0x8, addend: 0x0, symName: __ZNSt3__111__wrap_iterIP5AlienEC2B8ne180100ES2_, symObjAddr: 0x42E0, symBinAddr: 0x100005050, symSize: 0x20 }
  - { offsetInCU: 0x185B5, offset: 0x18A7D, size: 0x8, addend: 0x0, symName: __ZNKSt3__16vectorI5LaserNS_9allocatorIS1_EEE6cbeginB8ne180100Ev, symObjAddr: 0x4340, symBinAddr: 0x1000050B0, symSize: 0x30 }
  - { offsetInCU: 0x185DA, offset: 0x18AA2, size: 0x8, addend: 0x0, symName: __ZNSt3__16vectorI5LaserNS_9allocatorIS1_EEE17__destruct_at_endB8ne180100EPS1_, symObjAddr: 0x4370, symBinAddr: 0x1000050E0, symSize: 0x50 }
  - { offsetInCU: 0x1861D, offset: 0x18AE5, size: 0x8, addend: 0x0, symName: __ZNKSt3__111__wrap_iterIPK5LaserE4baseB8ne180100Ev, symObjAddr: 0x4400, symBinAddr: 0x100005170, symSize: 0x20 }
  - { offsetInCU: 0x18642, offset: 0x18B0A, size: 0x8, addend: 0x0, symName: __ZNKSt3__16vectorI5LaserNS_9allocatorIS1_EEE5beginB8ne180100Ev, symObjAddr: 0x4420, symBinAddr: 0x100005190, symSize: 0x30 }
  - { offsetInCU: 0x18669, offset: 0x18B31, size: 0x8, addend: 0x0, symName: __ZNKSt3__16vectorI5LaserNS_9allocatorIS1_EEE11__make_iterB8ne180100EPKS1_, symObjAddr: 0x4450, symBinAddr: 0x1000051C0, symSize: 0x30 }
  - { offsetInCU: 0x1869D, offset: 0x18B65, size: 0x8, addend: 0x0, symName: __ZNSt3__111__wrap_iterIPK5LaserEC1B8ne180100ES3_, symObjAddr: 0x4480, symBinAddr: 0x1000051F0, symSize: 0x30 }
  - { offsetInCU: 0x186D4, offset: 0x18B9C, size: 0x8, addend: 0x0, symName: __ZNSt3__111__wrap_iterIPK5LaserEC2B8ne180100ES3_, symObjAddr: 0x44B0, symBinAddr: 0x100005220, symSize: 0x20 }
  - { offsetInCU: 0x1870B, offset: 0x18BD3, size: 0x8, addend: 0x0, symName: __ZNKSt3__16vectorI5LaserNS_9allocatorIS1_EEE4sizeB8ne180100Ev, symObjAddr: 0x44D0, symBinAddr: 0x100005240, symSize: 0x20 }
  - { offsetInCU: 0x18730, offset: 0x18BF8, size: 0x8, addend: 0x0, symName: __ZNKSt3__16vectorI5LaserNS_9allocatorIS1_EEE17__annotate_shrinkB8ne180100Em, symObjAddr: 0x44F0, symBinAddr: 0x100005260, symSize: 0x10 }
  - { offsetInCU: 0x1878A, offset: 0x18C52, size: 0x8, addend: 0x0, symName: __ZNKSt3__114__move_trivialclB8ne180100I5LaserS2_Li0EEENS_4pairIPT_PT0_EES5_S5_S7_, symObjAddr: 0x4680, symBinAddr: 0x1000053F0, symSize: 0x40 }
  - { offsetInCU: 0x187F7, offset: 0x18CBF, size: 0x8, addend: 0x0, symName: __ZNSt3__14pairIP5LaserS2_EC1B8ne180100IRS2_S2_Li0EEEOT_OT0_, symObjAddr: 0x4870, symBinAddr: 0x1000055E0, symSize: 0x30 }
  - { offsetInCU: 0x18854, offset: 0x18D1C, size: 0x8, addend: 0x0, symName: __ZNSt3__14pairIP5LaserS2_EC2B8ne180100IRS2_S2_Li0EEEOT_OT0_, symObjAddr: 0x48A0, symBinAddr: 0x100005610, symSize: 0x30 }
  - { offsetInCU: 0x188B1, offset: 0x18D79, size: 0x8, addend: 0x0, symName: __ZNSt3__118__unwrap_iter_implIP5LaserLb1EE8__unwrapB8ne180100ES2_, symObjAddr: 0x48D0, symBinAddr: 0x100005640, symSize: 0x20 }
  - { offsetInCU: 0x188D4, offset: 0x18D9C, size: 0x8, addend: 0x0, symName: __ZNSt3__14pairIP5LaserS2_EC1B8ne180100IS2_S2_Li0EEEOT_OT0_, symObjAddr: 0x48F0, symBinAddr: 0x100005660, symSize: 0x30 }
  - { offsetInCU: 0x18931, offset: 0x18DF9, size: 0x8, addend: 0x0, symName: __ZNSt3__14pairIP5LaserS2_EC2B8ne180100IS2_S2_Li0EEEOT_OT0_, symObjAddr: 0x4920, symBinAddr: 0x100005690, symSize: 0x30 }
  - { offsetInCU: 0x1898E, offset: 0x18E56, size: 0x8, addend: 0x0, symName: __ZNSt3__118__unwrap_iter_implIP5LaserLb1EE8__rewrapB8ne180100ES2_S2_, symObjAddr: 0x4950, symBinAddr: 0x1000056C0, symSize: 0x50 }
  - { offsetInCU: 0x189BF, offset: 0x18E87, size: 0x8, addend: 0x0, symName: __ZNSt3__16vectorI8ObstacleNS_9allocatorIS1_EEE9__end_capB8ne180100Ev, symObjAddr: 0x49A0, symBinAddr: 0x100005710, symSize: 0x20 }
  - { offsetInCU: 0x189EA, offset: 0x18EB2, size: 0x8, addend: 0x0, symName: __ZNSt3__16vectorI8ObstacleNS_9allocatorIS1_EEE22__construct_one_at_endB8ne180100IJS1_EEEvDpOT_, symObjAddr: 0x49C0, symBinAddr: 0x100005730, symSize: 0x90 }
  - { offsetInCU: 0x18A38, offset: 0x18F00, size: 0x8, addend: 0x0, symName: __ZNSt3__16vectorI8ObstacleNS_9allocatorIS1_EEE21__push_back_slow_pathIS1_EEPS1_OT_, symObjAddr: 0x4A50, symBinAddr: 0x1000057C0, symSize: 0xE0 }
  - { offsetInCU: 0x18A95, offset: 0x18F5D, size: 0x8, addend: 0x0, symName: __ZNSt3__117__compressed_pairIP8ObstacleNS_9allocatorIS1_EEE5firstB8ne180100Ev, symObjAddr: 0x4B30, symBinAddr: 0x1000058A0, symSize: 0x20 }
  - { offsetInCU: 0x18ABA, offset: 0x18F82, size: 0x8, addend: 0x0, symName: __ZNSt3__122__compressed_pair_elemIP8ObstacleLi0ELb0EE5__getB8ne180100Ev, symObjAddr: 0x4B50, symBinAddr: 0x1000058C0, symSize: 0x10 }
  - { offsetInCU: 0x18AFA, offset: 0x18FC2, size: 0x8, addend: 0x0, symName: __ZNSt3__16vectorI8ObstacleNS_9allocatorIS1_EEE21_ConstructTransactionC1B8ne180100ERS4_m, symObjAddr: 0x4B60, symBinAddr: 0x1000058D0, symSize: 0x30 }
  - { offsetInCU: 0x18B41, offset: 0x19009, size: 0x8, addend: 0x0, symName: __ZNSt3__116allocator_traitsINS_9allocatorI8ObstacleEEE9constructB8ne180100IS2_JS2_EvEEvRS3_PT_DpOT0_, symObjAddr: 0x4B90, symBinAddr: 0x100005900, symSize: 0x30 }
  - { offsetInCU: 0x18B98, offset: 0x19060, size: 0x8, addend: 0x0, symName: __ZNSt3__16vectorI8ObstacleNS_9allocatorIS1_EEE21_ConstructTransactionD1B8ne180100Ev, symObjAddr: 0x4BC0, symBinAddr: 0x100005930, symSize: 0x20 }
  - { offsetInCU: 0x18BC1, offset: 0x19089, size: 0x8, addend: 0x0, symName: __ZNSt3__16vectorI8ObstacleNS_9allocatorIS1_EEE21_ConstructTransactionC2B8ne180100ERS4_m, symObjAddr: 0x4BE0, symBinAddr: 0x100005950, symSize: 0x40 }
  - { offsetInCU: 0x18C08, offset: 0x190D0, size: 0x8, addend: 0x0, symName: __ZNSt3__19allocatorI8ObstacleE9constructB8ne180100IS1_JS1_EEEvPT_DpOT0_, symObjAddr: 0x4C20, symBinAddr: 0x100005990, symSize: 0x30 }
  - { offsetInCU: 0x18C5D, offset: 0x19125, size: 0x8, addend: 0x0, symName: __ZN8ObstacleC1EOS_, symObjAddr: 0x4C50, symBinAddr: 0x1000059C0, symSize: 0x30 }
  - { offsetInCU: 0x18C90, offset: 0x19158, size: 0x8, addend: 0x0, symName: __ZN8ObstacleC2EOS_, symObjAddr: 0x4C80, symBinAddr: 0x1000059F0, symSize: 0x40 }
  - { offsetInCU: 0x18CC3, offset: 0x1918B, size: 0x8, addend: 0x0, symName: __ZNSt3__16vectorI5BlockNS_9allocatorIS1_EEEC1B8ne180100EOS4_, symObjAddr: 0x4CC0, symBinAddr: 0x100005A30, symSize: 0x30 }
  - { offsetInCU: 0x18CFD, offset: 0x191C5, size: 0x8, addend: 0x0, symName: __ZNSt3__16vectorI5BlockNS_9allocatorIS1_EEEC2B8ne180100EOS4_, symObjAddr: 0x4CF0, symBinAddr: 0x100005A60, symSize: 0xD0 }
  - { offsetInCU: 0x18D3D, offset: 0x19205, size: 0x8, addend: 0x0, symName: __ZNSt3__117__compressed_pairIP5BlockNS_9allocatorIS1_EEEC1B8ne180100IDnS4_EEOT_OT0_, symObjAddr: 0x4DC0, symBinAddr: 0x100005B30, symSize: 0x30 }
  - { offsetInCU: 0x18D94, offset: 0x1925C, size: 0x8, addend: 0x0, symName: __ZNSt3__16vectorI5BlockNS_9allocatorIS1_EEE9__end_capB8ne180100Ev, symObjAddr: 0x4DF0, symBinAddr: 0x100005B60, symSize: 0x20 }
  - { offsetInCU: 0x18DB9, offset: 0x19281, size: 0x8, addend: 0x0, symName: __ZNSt3__117__compressed_pairIP5BlockNS_9allocatorIS1_EEEC2B8ne180100IDnS4_EEOT_OT0_, symObjAddr: 0x4E10, symBinAddr: 0x100005B80, symSize: 0x40 }
  - { offsetInCU: 0x18E10, offset: 0x192D8, size: 0x8, addend: 0x0, symName: __ZNSt3__122__compressed_pair_elemIP5BlockLi0ELb0EEC2B8ne180100IDnvEEOT_, symObjAddr: 0x4E50, symBinAddr: 0x100005BC0, symSize: 0x20 }
  - { offsetInCU: 0x18E51, offset: 0x19319, size: 0x8, addend: 0x0, symName: __ZNSt3__122__compressed_pair_elemINS_9allocatorI5BlockEELi1ELb1EEC2B8ne180100IS3_vEEOT_, symObjAddr: 0x4E70, symBinAddr: 0x100005BE0, symSize: 0x10 }
  - { offsetInCU: 0x18E92, offset: 0x1935A, size: 0x8, addend: 0x0, symName: __ZNSt3__117__compressed_pairIP5BlockNS_9allocatorIS1_EEE5firstB8ne180100Ev, symObjAddr: 0x4E80, symBinAddr: 0x100005BF0, symSize: 0x20 }
  - { offsetInCU: 0x18EB7, offset: 0x1937F, size: 0x8, addend: 0x0, symName: __ZNSt3__122__compressed_pair_elemIP5BlockLi0ELb0EE5__getB8ne180100Ev, symObjAddr: 0x4EA0, symBinAddr: 0x100005C10, symSize: 0x10 }
  - { offsetInCU: 0x18EDC, offset: 0x193A4, size: 0x8, addend: 0x0, symName: __ZNSt3__16vectorI8ObstacleNS_9allocatorIS1_EEE21_ConstructTransactionD2B8ne180100Ev, symObjAddr: 0x4EB0, symBinAddr: 0x100005C20, symSize: 0x20 }
  - { offsetInCU: 0x18F05, offset: 0x193CD, size: 0x8, addend: 0x0, symName: __ZNKSt3__16vectorI8ObstacleNS_9allocatorIS1_EEE11__recommendB8ne180100Em, symObjAddr: 0x4ED0, symBinAddr: 0x100005C40, symSize: 0xA0 }
  - { offsetInCU: 0x18F59, offset: 0x19421, size: 0x8, addend: 0x0, symName: __ZNKSt3__16vectorI8ObstacleNS_9allocatorIS1_EEE4sizeB8ne180100Ev, symObjAddr: 0x4F70, symBinAddr: 0x100005CE0, symSize: 0x20 }
  - { offsetInCU: 0x18F7E, offset: 0x19446, size: 0x8, addend: 0x0, symName: __ZNSt3__114__split_bufferI8ObstacleRNS_9allocatorIS1_EEEC1EmmS4_, symObjAddr: 0x4F90, symBinAddr: 0x100005D00, symSize: 0x40 }
  - { offsetInCU: 0x18FD3, offset: 0x1949B, size: 0x8, addend: 0x0, symName: __ZNSt3__114__split_bufferI8ObstacleRNS_9allocatorIS1_EEED1Ev, symObjAddr: 0x50F0, symBinAddr: 0x100005E60, symSize: 0x20 }
  - { offsetInCU: 0x18FFE, offset: 0x194C6, size: 0x8, addend: 0x0, symName: __ZNKSt3__16vectorI8ObstacleNS_9allocatorIS1_EEE8max_sizeEv, symObjAddr: 0x5110, symBinAddr: 0x100005E80, symSize: 0x60 }
  - { offsetInCU: 0x19025, offset: 0x194ED, size: 0x8, addend: 0x0, symName: __ZNKSt3__16vectorI8ObstacleNS_9allocatorIS1_EEE20__throw_length_errorB8ne180100Ev, symObjAddr: 0x5170, symBinAddr: 0x100005EE0, symSize: 0x20 }
  - { offsetInCU: 0x19055, offset: 0x1951D, size: 0x8, addend: 0x0, symName: __ZNSt3__116allocator_traitsINS_9allocatorI8ObstacleEEE8max_sizeB8ne180100IS3_vEEmRKS3_, symObjAddr: 0x51F0, symBinAddr: 0x100005F60, symSize: 0x20 }
  - { offsetInCU: 0x19083, offset: 0x1954B, size: 0x8, addend: 0x0, symName: __ZNKSt3__16vectorI8ObstacleNS_9allocatorIS1_EEE7__allocB8ne180100Ev, symObjAddr: 0x5210, symBinAddr: 0x100005F80, symSize: 0x20 }
  - { offsetInCU: 0x190A8, offset: 0x19570, size: 0x8, addend: 0x0, symName: __ZNSt3__114numeric_limitsIlE3maxB8ne180100Ev, symObjAddr: 0x5230, symBinAddr: 0x100005FA0, symSize: 0x10 }
  - { offsetInCU: 0x190D1, offset: 0x19599, size: 0x8, addend: 0x0, symName: __ZNKSt3__16__lessIvvEclB8ne180100ImmEEbRKT_RKT0_, symObjAddr: 0x5290, symBinAddr: 0x100006000, symSize: 0x30 }
  - { offsetInCU: 0x19124, offset: 0x195EC, size: 0x8, addend: 0x0, symName: __ZNKSt3__19allocatorI8ObstacleE8max_sizeB8ne180100Ev, symObjAddr: 0x52C0, symBinAddr: 0x100006030, symSize: 0x20 }
  - { offsetInCU: 0x19149, offset: 0x19611, size: 0x8, addend: 0x0, symName: __ZNKSt3__117__compressed_pairIP8ObstacleNS_9allocatorIS1_EEE6secondB8ne180100Ev, symObjAddr: 0x52E0, symBinAddr: 0x100006050, symSize: 0x20 }
  - { offsetInCU: 0x1916E, offset: 0x19636, size: 0x8, addend: 0x0, symName: __ZNKSt3__122__compressed_pair_elemINS_9allocatorI8ObstacleEELi1ELb1EE5__getB8ne180100Ev, symObjAddr: 0x5300, symBinAddr: 0x100006070, symSize: 0x10 }
  - { offsetInCU: 0x19193, offset: 0x1965B, size: 0x8, addend: 0x0, symName: __ZNSt3__123__libcpp_numeric_limitsIlLb1EE3maxB8ne180100Ev, symObjAddr: 0x5310, symBinAddr: 0x100006080, symSize: 0x10 }
  - { offsetInCU: 0x191A7, offset: 0x1966F, size: 0x8, addend: 0x0, symName: __ZNSt12length_errorC1B8ne180100EPKc, symObjAddr: 0x5390, symBinAddr: 0x100006100, symSize: 0x30 }
  - { offsetInCU: 0x191DE, offset: 0x196A6, size: 0x8, addend: 0x0, symName: __ZNSt12length_errorC2B8ne180100EPKc, symObjAddr: 0x53C0, symBinAddr: 0x100006130, symSize: 0x40 }
  - { offsetInCU: 0x19215, offset: 0x196DD, size: 0x8, addend: 0x0, symName: __ZNSt3__114__split_bufferI8ObstacleRNS_9allocatorIS1_EEEC2EmmS4_, symObjAddr: 0x5450, symBinAddr: 0x1000061C0, symSize: 0xD0 }
  - { offsetInCU: 0x19287, offset: 0x1974F, size: 0x8, addend: 0x0, symName: __ZNSt3__117__compressed_pairIP8ObstacleRNS_9allocatorIS1_EEEC1B8ne180100IDnS5_EEOT_OT0_, symObjAddr: 0x5520, symBinAddr: 0x100006290, symSize: 0x30 }
  - { offsetInCU: 0x192DE, offset: 0x197A6, size: 0x8, addend: 0x0, symName: __ZNSt3__114__split_bufferI8ObstacleRNS_9allocatorIS1_EEE7__allocB8ne180100Ev, symObjAddr: 0x5590, symBinAddr: 0x100006300, symSize: 0x20 }
  - { offsetInCU: 0x19303, offset: 0x197CB, size: 0x8, addend: 0x0, symName: __ZNSt3__114__split_bufferI8ObstacleRNS_9allocatorIS1_EEE9__end_capB8ne180100Ev, symObjAddr: 0x55B0, symBinAddr: 0x100006320, symSize: 0x20 }
  - { offsetInCU: 0x19328, offset: 0x197F0, size: 0x8, addend: 0x0, symName: __ZNSt3__117__compressed_pairIP8ObstacleRNS_9allocatorIS1_EEEC2B8ne180100IDnS5_EEOT_OT0_, symObjAddr: 0x55D0, symBinAddr: 0x100006340, symSize: 0x40 }
  - { offsetInCU: 0x1937F, offset: 0x19847, size: 0x8, addend: 0x0, symName: __ZNSt3__122__compressed_pair_elemIRNS_9allocatorI8ObstacleEELi1ELb0EEC2B8ne180100IS4_vEEOT_, symObjAddr: 0x5610, symBinAddr: 0x100006380, symSize: 0x20 }
  - { offsetInCU: 0x193C0, offset: 0x19888, size: 0x8, addend: 0x0, symName: __ZNSt3__19allocatorI8ObstacleE8allocateB8ne180100Em, symObjAddr: 0x5630, symBinAddr: 0x1000063A0, symSize: 0x50 }
  - { offsetInCU: 0x193F3, offset: 0x198BB, size: 0x8, addend: 0x0, symName: __ZNSt3__117__compressed_pairIP8ObstacleRNS_9allocatorIS1_EEE6secondB8ne180100Ev, symObjAddr: 0x5700, symBinAddr: 0x100006470, symSize: 0x20 }
  - { offsetInCU: 0x19418, offset: 0x198E0, size: 0x8, addend: 0x0, symName: __ZNSt3__122__compressed_pair_elemIRNS_9allocatorI8ObstacleEELi1ELb0EE5__getB8ne180100Ev, symObjAddr: 0x5720, symBinAddr: 0x100006490, symSize: 0x20 }
  - { offsetInCU: 0x1943D, offset: 0x19905, size: 0x8, addend: 0x0, symName: __ZNSt3__117__compressed_pairIP8ObstacleRNS_9allocatorIS1_EEE5firstB8ne180100Ev, symObjAddr: 0x5740, symBinAddr: 0x1000064B0, symSize: 0x20 }
  - { offsetInCU: 0x19462, offset: 0x1992A, size: 0x8, addend: 0x0, symName: __ZNSt3__116reverse_iteratorIP8ObstacleEC1B8ne180100ES2_, symObjAddr: 0x58E0, symBinAddr: 0x100006650, symSize: 0x30 }
  - { offsetInCU: 0x19499, offset: 0x19961, size: 0x8, addend: 0x0, symName: __ZNKSt3__116reverse_iteratorIP8ObstacleE4baseB8ne180100Ev, symObjAddr: 0x5910, symBinAddr: 0x100006680, symSize: 0x20 }
  - { offsetInCU: 0x194BE, offset: 0x19986, size: 0x8, addend: 0x0, symName: __ZNKSt3__16vectorI8ObstacleNS_9allocatorIS1_EEE14__annotate_newB8ne180100Em, symObjAddr: 0x5970, symBinAddr: 0x1000066E0, symSize: 0x10 }
  - { offsetInCU: 0x194F2, offset: 0x199BA, size: 0x8, addend: 0x0, symName: __ZNSt3__129_AllocatorDestroyRangeReverseINS_9allocatorI8ObstacleEENS_16reverse_iteratorIPS2_EEEC1B8ne180100ERS3_RS6_S9_, symObjAddr: 0x59E0, symBinAddr: 0x100006750, symSize: 0x40 }
  - { offsetInCU: 0x19548, offset: 0x19A10, size: 0x8, addend: 0x0, symName: __ZNKSt3__116reverse_iteratorIP8ObstacleEdeB8ne180100Ev, symObjAddr: 0x5A80, symBinAddr: 0x1000067F0, symSize: 0x30 }
  - { offsetInCU: 0x1957B, offset: 0x19A43, size: 0x8, addend: 0x0, symName: __ZNSt3__116reverse_iteratorIP8ObstacleEppB8ne180100Ev, symObjAddr: 0x5AB0, symBinAddr: 0x100006820, symSize: 0x20 }
  - { offsetInCU: 0x195A0, offset: 0x19A68, size: 0x8, addend: 0x0, symName: __ZNSt3__128__exception_guard_exceptionsINS_29_AllocatorDestroyRangeReverseINS_9allocatorI8ObstacleEENS_16reverse_iteratorIPS3_EEEEE10__completeB8ne180100Ev, symObjAddr: 0x5AD0, symBinAddr: 0x100006840, symSize: 0x20 }
  - { offsetInCU: 0x195C5, offset: 0x19A8D, size: 0x8, addend: 0x0, symName: __ZNSt3__128__exception_guard_exceptionsINS_29_AllocatorDestroyRangeReverseINS_9allocatorI8ObstacleEENS_16reverse_iteratorIPS3_EEEEED1B8ne180100Ev, symObjAddr: 0x5AF0, symBinAddr: 0x100006860, symSize: 0x20 }
  - { offsetInCU: 0x195EE, offset: 0x19AB6, size: 0x8, addend: 0x0, symName: __ZNSt3__128__exception_guard_exceptionsINS_29_AllocatorDestroyRangeReverseINS_9allocatorI8ObstacleEENS_16reverse_iteratorIPS3_EEEEEC1B8ne180100ES8_, symObjAddr: 0x5B10, symBinAddr: 0x100006880, symSize: 0x40 }
  - { offsetInCU: 0x19625, offset: 0x19AED, size: 0x8, addend: 0x0, symName: __ZNSt3__128__exception_guard_exceptionsINS_29_AllocatorDestroyRangeReverseINS_9allocatorI8ObstacleEENS_16reverse_iteratorIPS3_EEEEEC2B8ne180100ES8_, symObjAddr: 0x5B50, symBinAddr: 0x1000068C0, symSize: 0x30 }
  - { offsetInCU: 0x1965C, offset: 0x19B24, size: 0x8, addend: 0x0, symName: __ZNSt3__129_AllocatorDestroyRangeReverseINS_9allocatorI8ObstacleEENS_16reverse_iteratorIPS2_EEEC2B8ne180100ERS3_RS6_S9_, symObjAddr: 0x5B80, symBinAddr: 0x1000068F0, symSize: 0x40 }
  - { offsetInCU: 0x196B8, offset: 0x19B80, size: 0x8, addend: 0x0, symName: __ZNSt3__119__to_address_helperINS_16reverse_iteratorIP8ObstacleEEvE6__callB8ne180100ERKS4_, symObjAddr: 0x5BC0, symBinAddr: 0x100006930, symSize: 0x40 }
  - { offsetInCU: 0x196DB, offset: 0x19BA3, size: 0x8, addend: 0x0, symName: __ZNKSt3__116reverse_iteratorIP8ObstacleEptB8ne180100Ev, symObjAddr: 0x5C00, symBinAddr: 0x100006970, symSize: 0x20 }
  - { offsetInCU: 0x19700, offset: 0x19BC8, size: 0x8, addend: 0x0, symName: __ZNSt3__128__exception_guard_exceptionsINS_29_AllocatorDestroyRangeReverseINS_9allocatorI8ObstacleEENS_16reverse_iteratorIPS3_EEEEED2B8ne180100Ev, symObjAddr: 0x5C20, symBinAddr: 0x100006990, symSize: 0x40 }
  - { offsetInCU: 0x19729, offset: 0x19BF1, size: 0x8, addend: 0x0, symName: __ZNKSt3__129_AllocatorDestroyRangeReverseINS_9allocatorI8ObstacleEENS_16reverse_iteratorIPS2_EEEclB8ne180100Ev, symObjAddr: 0x5C60, symBinAddr: 0x1000069D0, symSize: 0xF0 }
  - { offsetInCU: 0x1974F, offset: 0x19C17, size: 0x8, addend: 0x0, symName: __ZNSt3__116reverse_iteratorINS0_IP8ObstacleEEEC1B8ne180100ES3_, symObjAddr: 0x5DC0, symBinAddr: 0x100006B30, symSize: 0x30 }
  - { offsetInCU: 0x19786, offset: 0x19C4E, size: 0x8, addend: 0x0, symName: __ZNSt3__116reverse_iteratorINS0_IP8ObstacleEEEppB8ne180100Ev, symObjAddr: 0x5E60, symBinAddr: 0x100006BD0, symSize: 0x30 }
  - { offsetInCU: 0x197AB, offset: 0x19C73, size: 0x8, addend: 0x0, symName: __ZNKSt3__116reverse_iteratorINS0_IP8ObstacleEEE4baseB8ne180100Ev, symObjAddr: 0x5E90, symBinAddr: 0x100006C00, symSize: 0x20 }
  - { offsetInCU: 0x197D6, offset: 0x19C9E, size: 0x8, addend: 0x0, symName: __ZNSt3__119__to_address_helperINS_16reverse_iteratorINS1_IP8ObstacleEEEEvE6__callB8ne180100ERKS5_, symObjAddr: 0x5EB0, symBinAddr: 0x100006C20, symSize: 0x40 }
  - { offsetInCU: 0x197F9, offset: 0x19CC1, size: 0x8, addend: 0x0, symName: __ZNKSt3__116reverse_iteratorINS0_IP8ObstacleEEEptB8ne180100Ev, symObjAddr: 0x5EF0, symBinAddr: 0x100006C60, symSize: 0x20 }
  - { offsetInCU: 0x1981E, offset: 0x19CE6, size: 0x8, addend: 0x0, symName: __ZNKSt3__116reverse_iteratorINS0_IP8ObstacleEEEdeB8ne180100Ev, symObjAddr: 0x5F10, symBinAddr: 0x100006C80, symSize: 0x40 }
  - { offsetInCU: 0x19851, offset: 0x19D19, size: 0x8, addend: 0x0, symName: __ZNSt3__116reverse_iteratorIP8ObstacleEmmB8ne180100Ev, symObjAddr: 0x5F50, symBinAddr: 0x100006CC0, symSize: 0x20 }
  - { offsetInCU: 0x19876, offset: 0x19D3E, size: 0x8, addend: 0x0, symName: __ZNSt3__116reverse_iteratorINS0_IP8ObstacleEEEC2B8ne180100ES3_, symObjAddr: 0x5F70, symBinAddr: 0x100006CE0, symSize: 0x40 }
  - { offsetInCU: 0x198AD, offset: 0x19D75, size: 0x8, addend: 0x0, symName: __ZNSt3__116reverse_iteratorIP8ObstacleEC2B8ne180100ES2_, symObjAddr: 0x5FB0, symBinAddr: 0x100006D20, symSize: 0x30 }
  - { offsetInCU: 0x198E4, offset: 0x19DAC, size: 0x8, addend: 0x0, symName: __ZNSt3__114__split_bufferI8ObstacleRNS_9allocatorIS1_EEED2Ev, symObjAddr: 0x5FE0, symBinAddr: 0x100006D50, symSize: 0x70 }
  - { offsetInCU: 0x1990F, offset: 0x19DD7, size: 0x8, addend: 0x0, symName: __ZNSt3__114__split_bufferI8ObstacleRNS_9allocatorIS1_EEE5clearB8ne180100Ev, symObjAddr: 0x6050, symBinAddr: 0x100006DC0, symSize: 0x20 }
  - { offsetInCU: 0x19934, offset: 0x19DFC, size: 0x8, addend: 0x0, symName: __ZNKSt3__114__split_bufferI8ObstacleRNS_9allocatorIS1_EEE8capacityB8ne180100Ev, symObjAddr: 0x6070, symBinAddr: 0x100006DE0, symSize: 0x30 }
  - { offsetInCU: 0x19959, offset: 0x19E21, size: 0x8, addend: 0x0, symName: __ZNSt3__114__split_bufferI8ObstacleRNS_9allocatorIS1_EEE17__destruct_at_endB8ne180100EPS1_, symObjAddr: 0x60A0, symBinAddr: 0x100006E10, symSize: 0x30 }
  - { offsetInCU: 0x1998C, offset: 0x19E54, size: 0x8, addend: 0x0, symName: __ZNSt3__114__split_bufferI8ObstacleRNS_9allocatorIS1_EEE17__destruct_at_endB8ne180100EPS1_NS_17integral_constantIbLb0EEE, symObjAddr: 0x60D0, symBinAddr: 0x100006E40, symSize: 0x80 }
  - { offsetInCU: 0x199CC, offset: 0x19E94, size: 0x8, addend: 0x0, symName: __ZNKSt3__114__split_bufferI8ObstacleRNS_9allocatorIS1_EEE9__end_capB8ne180100Ev, symObjAddr: 0x6150, symBinAddr: 0x100006EC0, symSize: 0x20 }
  - { offsetInCU: 0x199F1, offset: 0x19EB9, size: 0x8, addend: 0x0, symName: __ZNKSt3__117__compressed_pairIP8ObstacleRNS_9allocatorIS1_EEE5firstB8ne180100Ev, symObjAddr: 0x6170, symBinAddr: 0x100006EE0, symSize: 0x20 }
  - { offsetInCU: 0x19A16, offset: 0x19EDE, size: 0x8, addend: 0x0, symName: __ZNSt3__16vectorI8ObstacleNS_9allocatorIS1_EEEC2ERKS4_, symObjAddr: 0x6190, symBinAddr: 0x100006F00, symSize: 0xA0 }
  - { offsetInCU: 0x19A50, offset: 0x19F18, size: 0x8, addend: 0x0, symName: __ZNSt3__116allocator_traitsINS_9allocatorI8ObstacleEEE37select_on_container_copy_constructionB8ne180100IS3_vvEES3_RKS3_, symObjAddr: 0x6230, symBinAddr: 0x100006FA0, symSize: 0x10 }
  - { offsetInCU: 0x19A85, offset: 0x19F4D, size: 0x8, addend: 0x0, symName: __ZNSt3__117__compressed_pairIP8ObstacleNS_9allocatorIS1_EEEC1B8ne180100IDnS4_EEOT_OT0_, symObjAddr: 0x6240, symBinAddr: 0x100006FB0, symSize: 0x30 }
  - { offsetInCU: 0x19ADC, offset: 0x19FA4, size: 0x8, addend: 0x0, symName: __ZNSt3__16vectorI8ObstacleNS_9allocatorIS1_EEE16__init_with_sizeB8ne180100IPS1_S6_EEvT_T0_m, symObjAddr: 0x6270, symBinAddr: 0x100006FE0, symSize: 0xB0 }
  - { offsetInCU: 0x19B4F, offset: 0x1A017, size: 0x8, addend: 0x0, symName: __ZNSt3__117__compressed_pairIP8ObstacleNS_9allocatorIS1_EEEC2B8ne180100IDnS4_EEOT_OT0_, symObjAddr: 0x6320, symBinAddr: 0x100007090, symSize: 0x40 }
  - { offsetInCU: 0x19BA6, offset: 0x1A06E, size: 0x8, addend: 0x0, symName: __ZNSt3__122__compressed_pair_elemINS_9allocatorI8ObstacleEELi1ELb1EEC2B8ne180100IS3_vEEOT_, symObjAddr: 0x6360, symBinAddr: 0x1000070D0, symSize: 0x10 }
  - { offsetInCU: 0x19BE7, offset: 0x1A0AF, size: 0x8, addend: 0x0, symName: __ZNSt3__16vectorI8ObstacleNS_9allocatorIS1_EEE11__vallocateB8ne180100Em, symObjAddr: 0x63B0, symBinAddr: 0x100007120, symSize: 0xA0 }
  - { offsetInCU: 0x19C2A, offset: 0x1A0F2, size: 0x8, addend: 0x0, symName: __ZNSt3__16vectorI8ObstacleNS_9allocatorIS1_EEE18__construct_at_endIPS1_S6_EEvT_T0_m, symObjAddr: 0x6450, symBinAddr: 0x1000071C0, symSize: 0x90 }
  - { offsetInCU: 0x19C9F, offset: 0x1A167, size: 0x8, addend: 0x0, symName: __ZNSt3__128__exception_guard_exceptionsINS_6vectorI8ObstacleNS_9allocatorIS2_EEE16__destroy_vectorEE10__completeB8ne180100Ev, symObjAddr: 0x64E0, symBinAddr: 0x100007250, symSize: 0x20 }
  - { offsetInCU: 0x19CC4, offset: 0x1A18C, size: 0x8, addend: 0x0, symName: __ZNSt3__128__exception_guard_exceptionsINS_6vectorI8ObstacleNS_9allocatorIS2_EEE16__destroy_vectorEED1B8ne180100Ev, symObjAddr: 0x6500, symBinAddr: 0x100007270, symSize: 0x20 }
  - { offsetInCU: 0x19CED, offset: 0x1A1B5, size: 0x8, addend: 0x0, symName: __ZNSt3__128__exception_guard_exceptionsINS_6vectorI8ObstacleNS_9allocatorIS2_EEE16__destroy_vectorEEC1B8ne180100ES6_, symObjAddr: 0x6520, symBinAddr: 0x100007290, symSize: 0x30 }
  - { offsetInCU: 0x19D24, offset: 0x1A1EC, size: 0x8, addend: 0x0, symName: __ZNSt3__128__exception_guard_exceptionsINS_6vectorI8ObstacleNS_9allocatorIS2_EEE16__destroy_vectorEEC2B8ne180100ES6_, symObjAddr: 0x6550, symBinAddr: 0x1000072C0, symSize: 0x20 }
  - { offsetInCU: 0x19D7D, offset: 0x1A245, size: 0x8, addend: 0x0, symName: __ZNSt3__14pairIP8ObstacleS2_EC1B8ne180100IS2_S2_Li0EEEOT_OT0_, symObjAddr: 0x67D0, symBinAddr: 0x100007540, symSize: 0x30 }
  - { offsetInCU: 0x19DDA, offset: 0x1A2A2, size: 0x8, addend: 0x0, symName: __ZNSt3__14pairIP8ObstacleS2_EC2B8ne180100IS2_S2_Li0EEEOT_OT0_, symObjAddr: 0x6800, symBinAddr: 0x100007570, symSize: 0x30 }
  - { offsetInCU: 0x19E37, offset: 0x1A2FF, size: 0x8, addend: 0x0, symName: __ZNSt3__129_AllocatorDestroyRangeReverseINS_9allocatorI8ObstacleEEPS2_EC1B8ne180100ERS3_RS4_S7_, symObjAddr: 0x6890, symBinAddr: 0x100007600, symSize: 0x40 }
  - { offsetInCU: 0x19E8D, offset: 0x1A355, size: 0x8, addend: 0x0, symName: __ZNSt3__116allocator_traitsINS_9allocatorI8ObstacleEEE9constructB8ne180100IS2_JRS2_EvEEvRS3_PT_DpOT0_, symObjAddr: 0x68D0, symBinAddr: 0x100007640, symSize: 0x30 }
  - { offsetInCU: 0x19EE4, offset: 0x1A3AC, size: 0x8, addend: 0x0, symName: __ZNSt3__128__exception_guard_exceptionsINS_29_AllocatorDestroyRangeReverseINS_9allocatorI8ObstacleEEPS3_EEE10__completeB8ne180100Ev, symObjAddr: 0x6900, symBinAddr: 0x100007670, symSize: 0x20 }
  - { offsetInCU: 0x19F09, offset: 0x1A3D1, size: 0x8, addend: 0x0, symName: __ZNSt3__128__exception_guard_exceptionsINS_29_AllocatorDestroyRangeReverseINS_9allocatorI8ObstacleEEPS3_EEED1B8ne180100Ev, symObjAddr: 0x6920, symBinAddr: 0x100007690, symSize: 0x20 }
  - { offsetInCU: 0x19F32, offset: 0x1A3FA, size: 0x8, addend: 0x0, symName: __ZNSt3__128__exception_guard_exceptionsINS_29_AllocatorDestroyRangeReverseINS_9allocatorI8ObstacleEEPS3_EEEC1B8ne180100ES6_, symObjAddr: 0x6940, symBinAddr: 0x1000076B0, symSize: 0x40 }
  - { offsetInCU: 0x19F69, offset: 0x1A431, size: 0x8, addend: 0x0, symName: __ZNSt3__128__exception_guard_exceptionsINS_29_AllocatorDestroyRangeReverseINS_9allocatorI8ObstacleEEPS3_EEEC2B8ne180100ES6_, symObjAddr: 0x6980, symBinAddr: 0x1000076F0, symSize: 0x30 }
  - { offsetInCU: 0x19FA0, offset: 0x1A468, size: 0x8, addend: 0x0, symName: __ZNSt3__129_AllocatorDestroyRangeReverseINS_9allocatorI8ObstacleEEPS2_EC2B8ne180100ERS3_RS4_S7_, symObjAddr: 0x69B0, symBinAddr: 0x100007720, symSize: 0x40 }
  - { offsetInCU: 0x19FF6, offset: 0x1A4BE, size: 0x8, addend: 0x0, symName: __ZNSt3__19allocatorI8ObstacleE9constructB8ne180100IS1_JRS1_EEEvPT_DpOT0_, symObjAddr: 0x69F0, symBinAddr: 0x100007760, symSize: 0x30 }
  - { offsetInCU: 0x1A04B, offset: 0x1A513, size: 0x8, addend: 0x0, symName: __ZN8ObstacleC1ERKS_, symObjAddr: 0x6A20, symBinAddr: 0x100007790, symSize: 0x30 }
  - { offsetInCU: 0x1A07E, offset: 0x1A546, size: 0x8, addend: 0x0, symName: __ZN8ObstacleC2ERKS_, symObjAddr: 0x6A50, symBinAddr: 0x1000077C0, symSize: 0x40 }
  - { offsetInCU: 0x1A0B1, offset: 0x1A579, size: 0x8, addend: 0x0, symName: __ZNSt3__16vectorI5BlockNS_9allocatorIS1_EEEC1ERKS4_, symObjAddr: 0x6A90, symBinAddr: 0x100007800, symSize: 0x30 }
  - { offsetInCU: 0x1A0EB, offset: 0x1A5B3, size: 0x8, addend: 0x0, symName: __ZNSt3__16vectorI5BlockNS_9allocatorIS1_EEEC2ERKS4_, symObjAddr: 0x6AC0, symBinAddr: 0x100007830, symSize: 0xA0 }
  - { offsetInCU: 0x1A130, offset: 0x1A5F8, size: 0x8, addend: 0x0, symName: __ZNSt3__116allocator_traitsINS_9allocatorI5BlockEEE37select_on_container_copy_constructionB8ne180100IS3_vvEES3_RKS3_, symObjAddr: 0x6B60, symBinAddr: 0x1000078D0, symSize: 0x10 }
  - { offsetInCU: 0x1A15F, offset: 0x1A627, size: 0x8, addend: 0x0, symName: __ZNKSt3__16vectorI5BlockNS_9allocatorIS1_EEE7__allocB8ne180100Ev, symObjAddr: 0x6B70, symBinAddr: 0x1000078E0, symSize: 0x20 }
  - { offsetInCU: 0x1A184, offset: 0x1A64C, size: 0x8, addend: 0x0, symName: __ZNSt3__16vectorI5BlockNS_9allocatorIS1_EEE16__init_with_sizeB8ne180100IPS1_S6_EEvT_T0_m, symObjAddr: 0x6B90, symBinAddr: 0x100007900, symSize: 0xB0 }
  - { offsetInCU: 0x1A1F7, offset: 0x1A6BF, size: 0x8, addend: 0x0, symName: __ZNKSt3__16vectorI5BlockNS_9allocatorIS1_EEE4sizeB8ne180100Ev, symObjAddr: 0x6C40, symBinAddr: 0x1000079B0, symSize: 0x20 }
  - { offsetInCU: 0x1A21C, offset: 0x1A6E4, size: 0x8, addend: 0x0, symName: __ZNKSt3__117__compressed_pairIP5BlockNS_9allocatorIS1_EEE6secondB8ne180100Ev, symObjAddr: 0x6C60, symBinAddr: 0x1000079D0, symSize: 0x20 }
  - { offsetInCU: 0x1A241, offset: 0x1A709, size: 0x8, addend: 0x0, symName: __ZNKSt3__122__compressed_pair_elemINS_9allocatorI5BlockEELi1ELb1EE5__getB8ne180100Ev, symObjAddr: 0x6C80, symBinAddr: 0x1000079F0, symSize: 0x10 }
  - { offsetInCU: 0x1A266, offset: 0x1A72E, size: 0x8, addend: 0x0, symName: __ZNSt3__16vectorI5BlockNS_9allocatorIS1_EEE11__vallocateB8ne180100Em, symObjAddr: 0x6CD0, symBinAddr: 0x100007A40, symSize: 0xA0 }
  - { offsetInCU: 0x1A2A9, offset: 0x1A771, size: 0x8, addend: 0x0, symName: __ZNSt3__16vectorI5BlockNS_9allocatorIS1_EEE18__construct_at_endIPS1_S6_EEvT_T0_m, symObjAddr: 0x6D70, symBinAddr: 0x100007AE0, symSize: 0x90 }
  - { offsetInCU: 0x1A31E, offset: 0x1A7E6, size: 0x8, addend: 0x0, symName: __ZNSt3__128__exception_guard_exceptionsINS_6vectorI5BlockNS_9allocatorIS2_EEE16__destroy_vectorEE10__completeB8ne180100Ev, symObjAddr: 0x6E00, symBinAddr: 0x100007B70, symSize: 0x20 }
  - { offsetInCU: 0x1A343, offset: 0x1A80B, size: 0x8, addend: 0x0, symName: __ZNSt3__128__exception_guard_exceptionsINS_6vectorI5BlockNS_9allocatorIS2_EEE16__destroy_vectorEED1B8ne180100Ev, symObjAddr: 0x6E20, symBinAddr: 0x100007B90, symSize: 0x20 }
  - { offsetInCU: 0x1A36C, offset: 0x1A834, size: 0x8, addend: 0x0, symName: __ZNSt3__128__exception_guard_exceptionsINS_6vectorI5BlockNS_9allocatorIS2_EEE16__destroy_vectorEEC1B8ne180100ES6_, symObjAddr: 0x6E40, symBinAddr: 0x100007BB0, symSize: 0x30 }
  - { offsetInCU: 0x1A3A3, offset: 0x1A86B, size: 0x8, addend: 0x0, symName: __ZNSt3__128__exception_guard_exceptionsINS_6vectorI5BlockNS_9allocatorIS2_EEE16__destroy_vectorEEC2B8ne180100ES6_, symObjAddr: 0x6E70, symBinAddr: 0x100007BE0, symSize: 0x20 }
  - { offsetInCU: 0x1A3DA, offset: 0x1A8A2, size: 0x8, addend: 0x0, symName: __ZNKSt3__16vectorI5BlockNS_9allocatorIS1_EEE8max_sizeEv, symObjAddr: 0x6E90, symBinAddr: 0x100007C00, symSize: 0x60 }
  - { offsetInCU: 0x1A401, offset: 0x1A8C9, size: 0x8, addend: 0x0, symName: __ZNKSt3__16vectorI5BlockNS_9allocatorIS1_EEE20__throw_length_errorB8ne180100Ev, symObjAddr: 0x6EF0, symBinAddr: 0x100007C60, symSize: 0x20 }
  - { offsetInCU: 0x1A426, offset: 0x1A8EE, size: 0x8, addend: 0x0, symName: __ZNKSt3__16vectorI5BlockNS_9allocatorIS1_EEE14__annotate_newB8ne180100Em, symObjAddr: 0x6F50, symBinAddr: 0x100007CC0, symSize: 0x10 }
  - { offsetInCU: 0x1A45A, offset: 0x1A922, size: 0x8, addend: 0x0, symName: __ZNSt3__116allocator_traitsINS_9allocatorI5BlockEEE8max_sizeB8ne180100IS3_vEEmRKS3_, symObjAddr: 0x6F60, symBinAddr: 0x100007CD0, symSize: 0x20 }
  - { offsetInCU: 0x1A488, offset: 0x1A950, size: 0x8, addend: 0x0, symName: __ZNKSt3__19allocatorI5BlockE8max_sizeB8ne180100Ev, symObjAddr: 0x6F80, symBinAddr: 0x100007CF0, symSize: 0x20 }
  - { offsetInCU: 0x1A4AD, offset: 0x1A975, size: 0x8, addend: 0x0, symName: __ZNSt3__19allocatorI5BlockE8allocateB8ne180100Em, symObjAddr: 0x6FA0, symBinAddr: 0x100007D10, symSize: 0x50 }
  - { offsetInCU: 0x1A4FB, offset: 0x1A9C3, size: 0x8, addend: 0x0, symName: __ZNSt3__16vectorI5BlockNS_9allocatorIS1_EEE21_ConstructTransactionC1B8ne180100ERS4_m, symObjAddr: 0x6FF0, symBinAddr: 0x100007D60, symSize: 0x30 }
  - { offsetInCU: 0x1A542, offset: 0x1AA0A, size: 0x8, addend: 0x0, symName: __ZNSt3__16vectorI5BlockNS_9allocatorIS1_EEE21_ConstructTransactionD1B8ne180100Ev, symObjAddr: 0x70A0, symBinAddr: 0x100007E10, symSize: 0x20 }
  - { offsetInCU: 0x1A56B, offset: 0x1AA33, size: 0x8, addend: 0x0, symName: __ZNSt3__16vectorI5BlockNS_9allocatorIS1_EEE21_ConstructTransactionC2B8ne180100ERS4_m, symObjAddr: 0x70C0, symBinAddr: 0x100007E30, symSize: 0x40 }
  - { offsetInCU: 0x1A5D4, offset: 0x1AA9C, size: 0x8, addend: 0x0, symName: __ZNSt3__14pairIP5BlockS2_EC1B8ne180100IS2_S2_Li0EEEOT_OT0_, symObjAddr: 0x7210, symBinAddr: 0x100007F80, symSize: 0x30 }
  - { offsetInCU: 0x1A631, offset: 0x1AAF9, size: 0x8, addend: 0x0, symName: __ZNSt3__14pairIP5BlockS2_EC2B8ne180100IS2_S2_Li0EEEOT_OT0_, symObjAddr: 0x7240, symBinAddr: 0x100007FB0, symSize: 0x30 }
  - { offsetInCU: 0x1A698, offset: 0x1AB60, size: 0x8, addend: 0x0, symName: __ZNKSt3__114__copy_trivialclB8ne180100I5BlockS2_Li0EEENS_4pairIPT_PT0_EES5_S5_S7_, symObjAddr: 0x73E0, symBinAddr: 0x100008150, symSize: 0x40 }
  - { offsetInCU: 0x1A6FF, offset: 0x1ABC7, size: 0x8, addend: 0x0, symName: __ZNSt3__14pairIP5BlockS2_EC1B8ne180100IRS2_S2_Li0EEEOT_OT0_, symObjAddr: 0x7540, symBinAddr: 0x1000082B0, symSize: 0x30 }
  - { offsetInCU: 0x1A75C, offset: 0x1AC24, size: 0x8, addend: 0x0, symName: __ZNSt3__14pairIP5BlockS2_EC2B8ne180100IRS2_S2_Li0EEEOT_OT0_, symObjAddr: 0x7570, symBinAddr: 0x1000082E0, symSize: 0x30 }
  - { offsetInCU: 0x1A7B9, offset: 0x1AC81, size: 0x8, addend: 0x0, symName: __ZNSt3__118__unwrap_iter_implIP5BlockLb1EE8__unwrapB8ne180100ES2_, symObjAddr: 0x75A0, symBinAddr: 0x100008310, symSize: 0x20 }
  - { offsetInCU: 0x1A7DC, offset: 0x1ACA4, size: 0x8, addend: 0x0, symName: __ZNSt3__118__unwrap_iter_implIP5BlockLb1EE8__rewrapB8ne180100ES2_S2_, symObjAddr: 0x75C0, symBinAddr: 0x100008330, symSize: 0x50 }
  - { offsetInCU: 0x1A80D, offset: 0x1ACD5, size: 0x8, addend: 0x0, symName: __ZNSt3__16vectorI5BlockNS_9allocatorIS1_EEE21_ConstructTransactionD2B8ne180100Ev, symObjAddr: 0x7610, symBinAddr: 0x100008380, symSize: 0x20 }
  - { offsetInCU: 0x1A836, offset: 0x1ACFE, size: 0x8, addend: 0x0, symName: __ZNSt3__128__exception_guard_exceptionsINS_6vectorI5BlockNS_9allocatorIS2_EEE16__destroy_vectorEED2B8ne180100Ev, symObjAddr: 0x7630, symBinAddr: 0x1000083A0, symSize: 0x30 }
  - { offsetInCU: 0x1A85F, offset: 0x1AD27, size: 0x8, addend: 0x0, symName: __ZNSt3__128__exception_guard_exceptionsINS_29_AllocatorDestroyRangeReverseINS_9allocatorI8ObstacleEEPS3_EEED2B8ne180100Ev, symObjAddr: 0x7660, symBinAddr: 0x1000083D0, symSize: 0x40 }
  - { offsetInCU: 0x1A888, offset: 0x1AD50, size: 0x8, addend: 0x0, symName: __ZNKSt3__129_AllocatorDestroyRangeReverseINS_9allocatorI8ObstacleEEPS2_EclB8ne180100Ev, symObjAddr: 0x76A0, symBinAddr: 0x100008410, symSize: 0x60 }
  - { offsetInCU: 0x1A8AD, offset: 0x1AD75, size: 0x8, addend: 0x0, symName: __ZNSt3__118__unwrap_iter_implIP8ObstacleLb1EE8__unwrapB8ne180100ES2_, symObjAddr: 0x7770, symBinAddr: 0x1000084E0, symSize: 0x20 }
  - { offsetInCU: 0x1A8D0, offset: 0x1AD98, size: 0x8, addend: 0x0, symName: __ZNSt3__118__unwrap_iter_implIP8ObstacleLb1EE8__rewrapB8ne180100ES2_S2_, symObjAddr: 0x7790, symBinAddr: 0x100008500, symSize: 0x50 }
  - { offsetInCU: 0x1A901, offset: 0x1ADC9, size: 0x8, addend: 0x0, symName: __ZNSt3__128__exception_guard_exceptionsINS_6vectorI8ObstacleNS_9allocatorIS2_EEE16__destroy_vectorEED2B8ne180100Ev, symObjAddr: 0x77E0, symBinAddr: 0x100008550, symSize: 0x30 }
  - { offsetInCU: 0x1A92A, offset: 0x1ADF2, size: 0x8, addend: 0x0, symName: __ZNSt3__16vectorI5AlienNS_9allocatorIS1_EEE9__end_capB8ne180100Ev, symObjAddr: 0x7810, symBinAddr: 0x100008580, symSize: 0x20 }
  - { offsetInCU: 0x1A955, offset: 0x1AE1D, size: 0x8, addend: 0x0, symName: __ZNSt3__16vectorI5AlienNS_9allocatorIS1_EEE22__construct_one_at_endB8ne180100IJS1_EEEvDpOT_, symObjAddr: 0x7830, symBinAddr: 0x1000085A0, symSize: 0x90 }
  - { offsetInCU: 0x1A9A3, offset: 0x1AE6B, size: 0x8, addend: 0x0, symName: __ZNSt3__16vectorI5AlienNS_9allocatorIS1_EEE21__push_back_slow_pathIS1_EEPS1_OT_, symObjAddr: 0x78C0, symBinAddr: 0x100008630, symSize: 0xE0 }
  - { offsetInCU: 0x1AA00, offset: 0x1AEC8, size: 0x8, addend: 0x0, symName: __ZNSt3__117__compressed_pairIP5AlienNS_9allocatorIS1_EEE5firstB8ne180100Ev, symObjAddr: 0x79A0, symBinAddr: 0x100008710, symSize: 0x20 }
  - { offsetInCU: 0x1AA25, offset: 0x1AEED, size: 0x8, addend: 0x0, symName: __ZNSt3__122__compressed_pair_elemIP5AlienLi0ELb0EE5__getB8ne180100Ev, symObjAddr: 0x79C0, symBinAddr: 0x100008730, symSize: 0x10 }
  - { offsetInCU: 0x1AA65, offset: 0x1AF2D, size: 0x8, addend: 0x0, symName: __ZNSt3__16vectorI5AlienNS_9allocatorIS1_EEE21_ConstructTransactionC1B8ne180100ERS4_m, symObjAddr: 0x79D0, symBinAddr: 0x100008740, symSize: 0x30 }
  - { offsetInCU: 0x1AAAC, offset: 0x1AF74, size: 0x8, addend: 0x0, symName: __ZNSt3__116allocator_traitsINS_9allocatorI5AlienEEE9constructB8ne180100IS2_JS2_EvEEvRS3_PT_DpOT0_, symObjAddr: 0x7A00, symBinAddr: 0x100008770, symSize: 0x30 }
  - { offsetInCU: 0x1AB03, offset: 0x1AFCB, size: 0x8, addend: 0x0, symName: __ZNSt3__16vectorI5AlienNS_9allocatorIS1_EEE21_ConstructTransactionD1B8ne180100Ev, symObjAddr: 0x7A30, symBinAddr: 0x1000087A0, symSize: 0x20 }
  - { offsetInCU: 0x1AB2C, offset: 0x1AFF4, size: 0x8, addend: 0x0, symName: __ZNSt3__16vectorI5AlienNS_9allocatorIS1_EEE21_ConstructTransactionC2B8ne180100ERS4_m, symObjAddr: 0x7A50, symBinAddr: 0x1000087C0, symSize: 0x40 }
  - { offsetInCU: 0x1AB73, offset: 0x1B03B, size: 0x8, addend: 0x0, symName: __ZNSt3__19allocatorI5AlienE9constructB8ne180100IS1_JS1_EEEvPT_DpOT0_, symObjAddr: 0x7A90, symBinAddr: 0x100008800, symSize: 0x30 }
  - { offsetInCU: 0x1ABC8, offset: 0x1B090, size: 0x8, addend: 0x0, symName: __ZNSt3__16vectorI5AlienNS_9allocatorIS1_EEE21_ConstructTransactionD2B8ne180100Ev, symObjAddr: 0x7AC0, symBinAddr: 0x100008830, symSize: 0x20 }
  - { offsetInCU: 0x1ABF1, offset: 0x1B0B9, size: 0x8, addend: 0x0, symName: __ZNKSt3__16vectorI5AlienNS_9allocatorIS1_EEE11__recommendB8ne180100Em, symObjAddr: 0x7AE0, symBinAddr: 0x100008850, symSize: 0xA0 }
  - { offsetInCU: 0x1AC45, offset: 0x1B10D, size: 0x8, addend: 0x0, symName: __ZNSt3__114__split_bufferI5AlienRNS_9allocatorIS1_EEEC1EmmS4_, symObjAddr: 0x7B80, symBinAddr: 0x1000088F0, symSize: 0x40 }
  - { offsetInCU: 0x1AC9A, offset: 0x1B162, size: 0x8, addend: 0x0, symName: __ZNSt3__114__split_bufferI5AlienRNS_9allocatorIS1_EEED1Ev, symObjAddr: 0x7CE0, symBinAddr: 0x100008A50, symSize: 0x20 }
  - { offsetInCU: 0x1ACC5, offset: 0x1B18D, size: 0x8, addend: 0x0, symName: __ZNKSt3__16vectorI5AlienNS_9allocatorIS1_EEE8max_sizeEv, symObjAddr: 0x7D00, symBinAddr: 0x100008A70, symSize: 0x60 }
  - { offsetInCU: 0x1ACEC, offset: 0x1B1B4, size: 0x8, addend: 0x0, symName: __ZNKSt3__16vectorI5AlienNS_9allocatorIS1_EEE20__throw_length_errorB8ne180100Ev, symObjAddr: 0x7D60, symBinAddr: 0x100008AD0, symSize: 0x20 }
  - { offsetInCU: 0x1AD1C, offset: 0x1B1E4, size: 0x8, addend: 0x0, symName: __ZNSt3__116allocator_traitsINS_9allocatorI5AlienEEE8max_sizeB8ne180100IS3_vEEmRKS3_, symObjAddr: 0x7D80, symBinAddr: 0x100008AF0, symSize: 0x20 }
  - { offsetInCU: 0x1AD4A, offset: 0x1B212, size: 0x8, addend: 0x0, symName: __ZNKSt3__16vectorI5AlienNS_9allocatorIS1_EEE7__allocB8ne180100Ev, symObjAddr: 0x7DA0, symBinAddr: 0x100008B10, symSize: 0x20 }
  - { offsetInCU: 0x1AD6F, offset: 0x1B237, size: 0x8, addend: 0x0, symName: __ZNKSt3__19allocatorI5AlienE8max_sizeB8ne180100Ev, symObjAddr: 0x7DC0, symBinAddr: 0x100008B30, symSize: 0x20 }
  - { offsetInCU: 0x1AD94, offset: 0x1B25C, size: 0x8, addend: 0x0, symName: __ZNKSt3__117__compressed_pairIP5AlienNS_9allocatorIS1_EEE6secondB8ne180100Ev, symObjAddr: 0x7DE0, symBinAddr: 0x100008B50, symSize: 0x20 }
  - { offsetInCU: 0x1ADB9, offset: 0x1B281, size: 0x8, addend: 0x0, symName: __ZNKSt3__122__compressed_pair_elemINS_9allocatorI5AlienEELi1ELb1EE5__getB8ne180100Ev, symObjAddr: 0x7E00, symBinAddr: 0x100008B70, symSize: 0x10 }
  - { offsetInCU: 0x1ADDE, offset: 0x1B2A6, size: 0x8, addend: 0x0, symName: __ZNSt3__114__split_bufferI5AlienRNS_9allocatorIS1_EEEC2EmmS4_, symObjAddr: 0x7E10, symBinAddr: 0x100008B80, symSize: 0xC0 }
  - { offsetInCU: 0x1AE50, offset: 0x1B318, size: 0x8, addend: 0x0, symName: __ZNSt3__117__compressed_pairIP5AlienRNS_9allocatorIS1_EEEC1B8ne180100IDnS5_EEOT_OT0_, symObjAddr: 0x7ED0, symBinAddr: 0x100008C40, symSize: 0x30 }
  - { offsetInCU: 0x1AEA7, offset: 0x1B36F, size: 0x8, addend: 0x0, symName: __ZNSt3__114__split_bufferI5AlienRNS_9allocatorIS1_EEE7__allocB8ne180100Ev, symObjAddr: 0x7F40, symBinAddr: 0x100008CB0, symSize: 0x20 }
  - { offsetInCU: 0x1AECC, offset: 0x1B394, size: 0x8, addend: 0x0, symName: __ZNSt3__114__split_bufferI5AlienRNS_9allocatorIS1_EEE9__end_capB8ne180100Ev, symObjAddr: 0x7F60, symBinAddr: 0x100008CD0, symSize: 0x20 }
  - { offsetInCU: 0x1AEF1, offset: 0x1B3B9, size: 0x8, addend: 0x0, symName: __ZNSt3__117__compressed_pairIP5AlienRNS_9allocatorIS1_EEEC2B8ne180100IDnS5_EEOT_OT0_, symObjAddr: 0x7F80, symBinAddr: 0x100008CF0, symSize: 0x40 }
  - { offsetInCU: 0x1AF48, offset: 0x1B410, size: 0x8, addend: 0x0, symName: __ZNSt3__122__compressed_pair_elemIRNS_9allocatorI5AlienEELi1ELb0EEC2B8ne180100IS4_vEEOT_, symObjAddr: 0x7FC0, symBinAddr: 0x100008D30, symSize: 0x20 }
  - { offsetInCU: 0x1AF89, offset: 0x1B451, size: 0x8, addend: 0x0, symName: __ZNSt3__19allocatorI5AlienE8allocateB8ne180100Em, symObjAddr: 0x7FE0, symBinAddr: 0x100008D50, symSize: 0x50 }
  - { offsetInCU: 0x1AFBC, offset: 0x1B484, size: 0x8, addend: 0x0, symName: __ZNSt3__117__compressed_pairIP5AlienRNS_9allocatorIS1_EEE6secondB8ne180100Ev, symObjAddr: 0x8030, symBinAddr: 0x100008DA0, symSize: 0x20 }
  - { offsetInCU: 0x1AFE1, offset: 0x1B4A9, size: 0x8, addend: 0x0, symName: __ZNSt3__122__compressed_pair_elemIRNS_9allocatorI5AlienEELi1ELb0EE5__getB8ne180100Ev, symObjAddr: 0x8050, symBinAddr: 0x100008DC0, symSize: 0x20 }
  - { offsetInCU: 0x1B006, offset: 0x1B4CE, size: 0x8, addend: 0x0, symName: __ZNSt3__117__compressed_pairIP5AlienRNS_9allocatorIS1_EEE5firstB8ne180100Ev, symObjAddr: 0x8070, symBinAddr: 0x100008DE0, symSize: 0x20 }
  - { offsetInCU: 0x1B02B, offset: 0x1B4F3, size: 0x8, addend: 0x0, symName: __ZNSt3__116reverse_iteratorIP5AlienEC1B8ne180100ES2_, symObjAddr: 0x8100, symBinAddr: 0x100008E70, symSize: 0x30 }
  - { offsetInCU: 0x1B062, offset: 0x1B52A, size: 0x8, addend: 0x0, symName: __ZNKSt3__116reverse_iteratorIP5AlienE4baseB8ne180100Ev, symObjAddr: 0x8130, symBinAddr: 0x100008EA0, symSize: 0x20 }
  - { offsetInCU: 0x1B087, offset: 0x1B54F, size: 0x8, addend: 0x0, symName: __ZNKSt3__16vectorI5AlienNS_9allocatorIS1_EEE14__annotate_newB8ne180100Em, symObjAddr: 0x8190, symBinAddr: 0x100008F00, symSize: 0x10 }
  - { offsetInCU: 0x1B0E1, offset: 0x1B5A9, size: 0x8, addend: 0x0, symName: __ZNKSt3__111__move_loopINS_17_ClassicAlgPolicyEEclB8ne180100INS_16reverse_iteratorIP5AlienEES7_S7_EENS_4pairIT_T1_EES9_T0_SA_, symObjAddr: 0x85E0, symBinAddr: 0x100009350, symSize: 0xA0 }
  - { offsetInCU: 0x1B151, offset: 0x1B619, size: 0x8, addend: 0x0, symName: __ZNSt3__18_IterOpsINS_17_ClassicAlgPolicyEE11__iter_moveB8ne180100IRNS_16reverse_iteratorIP5AlienEELi0EEEDTclsr3stdE4movedeclsr3stdE7declvalIRT_EEEEOS9_, symObjAddr: 0x8800, symBinAddr: 0x100009570, symSize: 0x20 }
  - { offsetInCU: 0x1B183, offset: 0x1B64B, size: 0x8, addend: 0x0, symName: __ZNKSt3__116reverse_iteratorIP5AlienEdeB8ne180100Ev, symObjAddr: 0x8820, symBinAddr: 0x100009590, symSize: 0x30 }
  - { offsetInCU: 0x1B1B6, offset: 0x1B67E, size: 0x8, addend: 0x0, symName: __ZNSt3__116reverse_iteratorIP5AlienEppB8ne180100Ev, symObjAddr: 0x8850, symBinAddr: 0x1000095C0, symSize: 0x20 }
  - { offsetInCU: 0x1B1DB, offset: 0x1B6A3, size: 0x8, addend: 0x0, symName: __ZNSt3__18_IterOpsINS_17_ClassicAlgPolicyEE25__validate_iter_referenceB8ne180100IRNS_16reverse_iteratorIP5AlienEEEEvv, symObjAddr: 0x8870, symBinAddr: 0x1000095E0, symSize: 0x10 }
  - { offsetInCU: 0x1B1F9, offset: 0x1B6C1, size: 0x8, addend: 0x0, symName: __ZNSt3__118__unwrap_iter_implINS_16reverse_iteratorIP5AlienEELb0EE8__unwrapB8ne180100ES4_, symObjAddr: 0x8880, symBinAddr: 0x1000095F0, symSize: 0x20 }
  - { offsetInCU: 0x1B222, offset: 0x1B6EA, size: 0x8, addend: 0x0, symName: __ZNSt3__14pairINS_16reverse_iteratorIP5AlienEES4_EC1B8ne180100IS4_S4_Li0EEEOT_OT0_, symObjAddr: 0x88A0, symBinAddr: 0x100009610, symSize: 0x30 }
  - { offsetInCU: 0x1B27F, offset: 0x1B747, size: 0x8, addend: 0x0, symName: __ZNSt3__14pairINS_16reverse_iteratorIP5AlienEES4_EC2B8ne180100IS4_S4_Li0EEEOT_OT0_, symObjAddr: 0x88D0, symBinAddr: 0x100009640, symSize: 0x40 }
  - { offsetInCU: 0x1B2DC, offset: 0x1B7A4, size: 0x8, addend: 0x0, symName: __ZNSt3__118__unwrap_iter_implINS_16reverse_iteratorIP5AlienEELb0EE8__rewrapB8ne180100ES4_S4_, symObjAddr: 0x8910, symBinAddr: 0x100009680, symSize: 0x30 }
  - { offsetInCU: 0x1B30A, offset: 0x1B7D2, size: 0x8, addend: 0x0, symName: __ZNSt3__116reverse_iteratorIP5AlienEC2B8ne180100ES2_, symObjAddr: 0x8940, symBinAddr: 0x1000096B0, symSize: 0x30 }
  - { offsetInCU: 0x1B341, offset: 0x1B809, size: 0x8, addend: 0x0, symName: __ZNSt3__114__split_bufferI5AlienRNS_9allocatorIS1_EEED2Ev, symObjAddr: 0x8970, symBinAddr: 0x1000096E0, symSize: 0x70 }
  - { offsetInCU: 0x1B36C, offset: 0x1B834, size: 0x8, addend: 0x0, symName: __ZNSt3__114__split_bufferI5AlienRNS_9allocatorIS1_EEE5clearB8ne180100Ev, symObjAddr: 0x89E0, symBinAddr: 0x100009750, symSize: 0x20 }
  - { offsetInCU: 0x1B391, offset: 0x1B859, size: 0x8, addend: 0x0, symName: __ZNKSt3__114__split_bufferI5AlienRNS_9allocatorIS1_EEE8capacityB8ne180100Ev, symObjAddr: 0x8A00, symBinAddr: 0x100009770, symSize: 0x40 }
  - { offsetInCU: 0x1B3B6, offset: 0x1B87E, size: 0x8, addend: 0x0, symName: __ZNSt3__114__split_bufferI5AlienRNS_9allocatorIS1_EEE17__destruct_at_endB8ne180100EPS1_, symObjAddr: 0x8A40, symBinAddr: 0x1000097B0, symSize: 0x30 }
  - { offsetInCU: 0x1B3E9, offset: 0x1B8B1, size: 0x8, addend: 0x0, symName: __ZNSt3__114__split_bufferI5AlienRNS_9allocatorIS1_EEE17__destruct_at_endB8ne180100EPS1_NS_17integral_constantIbLb0EEE, symObjAddr: 0x8A70, symBinAddr: 0x1000097E0, symSize: 0x80 }
  - { offsetInCU: 0x1B429, offset: 0x1B8F1, size: 0x8, addend: 0x0, symName: __ZNKSt3__114__split_bufferI5AlienRNS_9allocatorIS1_EEE9__end_capB8ne180100Ev, symObjAddr: 0x8AF0, symBinAddr: 0x100009860, symSize: 0x20 }
  - { offsetInCU: 0x1B44E, offset: 0x1B916, size: 0x8, addend: 0x0, symName: __ZNKSt3__117__compressed_pairIP5AlienRNS_9allocatorIS1_EEE5firstB8ne180100Ev, symObjAddr: 0x8B10, symBinAddr: 0x100009880, symSize: 0x20 }
  - { offsetInCU: 0x1B473, offset: 0x1B93B, size: 0x8, addend: 0x0, symName: __ZNSt3__16vectorI5LaserNS_9allocatorIS1_EEE9__end_capB8ne180100Ev, symObjAddr: 0x8B30, symBinAddr: 0x1000098A0, symSize: 0x20 }
  - { offsetInCU: 0x1B49E, offset: 0x1B966, size: 0x8, addend: 0x0, symName: __ZNSt3__16vectorI5LaserNS_9allocatorIS1_EEE22__construct_one_at_endB8ne180100IJS1_EEEvDpOT_, symObjAddr: 0x8B50, symBinAddr: 0x1000098C0, symSize: 0x90 }
  - { offsetInCU: 0x1B4EC, offset: 0x1B9B4, size: 0x8, addend: 0x0, symName: __ZNSt3__16vectorI5LaserNS_9allocatorIS1_EEE21__push_back_slow_pathIS1_EEPS1_OT_, symObjAddr: 0x8BE0, symBinAddr: 0x100009950, symSize: 0xE0 }
  - { offsetInCU: 0x1B549, offset: 0x1BA11, size: 0x8, addend: 0x0, symName: __ZNSt3__117__compressed_pairIP5LaserNS_9allocatorIS1_EEE5firstB8ne180100Ev, symObjAddr: 0x8CC0, symBinAddr: 0x100009A30, symSize: 0x20 }
  - { offsetInCU: 0x1B56E, offset: 0x1BA36, size: 0x8, addend: 0x0, symName: __ZNSt3__122__compressed_pair_elemIP5LaserLi0ELb0EE5__getB8ne180100Ev, symObjAddr: 0x8CE0, symBinAddr: 0x100009A50, symSize: 0x10 }
  - { offsetInCU: 0x1B5AE, offset: 0x1BA76, size: 0x8, addend: 0x0, symName: __ZNSt3__16vectorI5LaserNS_9allocatorIS1_EEE21_ConstructTransactionC1B8ne180100ERS4_m, symObjAddr: 0x8CF0, symBinAddr: 0x100009A60, symSize: 0x30 }
  - { offsetInCU: 0x1B5F5, offset: 0x1BABD, size: 0x8, addend: 0x0, symName: __ZNSt3__116allocator_traitsINS_9allocatorI5LaserEEE9constructB8ne180100IS2_JS2_EvEEvRS3_PT_DpOT0_, symObjAddr: 0x8D20, symBinAddr: 0x100009A90, symSize: 0x30 }
  - { offsetInCU: 0x1B64C, offset: 0x1BB14, size: 0x8, addend: 0x0, symName: __ZNSt3__16vectorI5LaserNS_9allocatorIS1_EEE21_ConstructTransactionD1B8ne180100Ev, symObjAddr: 0x8D50, symBinAddr: 0x100009AC0, symSize: 0x20 }
  - { offsetInCU: 0x1B675, offset: 0x1BB3D, size: 0x8, addend: 0x0, symName: __ZNSt3__16vectorI5LaserNS_9allocatorIS1_EEE21_ConstructTransactionC2B8ne180100ERS4_m, symObjAddr: 0x8D70, symBinAddr: 0x100009AE0, symSize: 0x40 }
  - { offsetInCU: 0x1B6BC, offset: 0x1BB84, size: 0x8, addend: 0x0, symName: __ZNSt3__19allocatorI5LaserE9constructB8ne180100IS1_JS1_EEEvPT_DpOT0_, symObjAddr: 0x8DB0, symBinAddr: 0x100009B20, symSize: 0x30 }
  - { offsetInCU: 0x1B711, offset: 0x1BBD9, size: 0x8, addend: 0x0, symName: __ZNSt3__16vectorI5LaserNS_9allocatorIS1_EEE21_ConstructTransactionD2B8ne180100Ev, symObjAddr: 0x8DE0, symBinAddr: 0x100009B50, symSize: 0x20 }
  - { offsetInCU: 0x1B73A, offset: 0x1BC02, size: 0x8, addend: 0x0, symName: __ZNKSt3__16vectorI5LaserNS_9allocatorIS1_EEE11__recommendB8ne180100Em, symObjAddr: 0x8E00, symBinAddr: 0x100009B70, symSize: 0xA0 }
  - { offsetInCU: 0x1B78E, offset: 0x1BC56, size: 0x8, addend: 0x0, symName: __ZNSt3__114__split_bufferI5LaserRNS_9allocatorIS1_EEEC1EmmS4_, symObjAddr: 0x8EA0, symBinAddr: 0x100009C10, symSize: 0x40 }
  - { offsetInCU: 0x1B7E3, offset: 0x1BCAB, size: 0x8, addend: 0x0, symName: __ZNSt3__114__split_bufferI5LaserRNS_9allocatorIS1_EEED1Ev, symObjAddr: 0x9000, symBinAddr: 0x100009D70, symSize: 0x20 }
  - { offsetInCU: 0x1B80E, offset: 0x1BCD6, size: 0x8, addend: 0x0, symName: __ZNKSt3__16vectorI5LaserNS_9allocatorIS1_EEE8max_sizeEv, symObjAddr: 0x9020, symBinAddr: 0x100009D90, symSize: 0x60 }
  - { offsetInCU: 0x1B835, offset: 0x1BCFD, size: 0x8, addend: 0x0, symName: __ZNKSt3__16vectorI5LaserNS_9allocatorIS1_EEE20__throw_length_errorB8ne180100Ev, symObjAddr: 0x9080, symBinAddr: 0x100009DF0, symSize: 0x20 }
  - { offsetInCU: 0x1B865, offset: 0x1BD2D, size: 0x8, addend: 0x0, symName: __ZNSt3__116allocator_traitsINS_9allocatorI5LaserEEE8max_sizeB8ne180100IS3_vEEmRKS3_, symObjAddr: 0x90A0, symBinAddr: 0x100009E10, symSize: 0x20 }
  - { offsetInCU: 0x1B893, offset: 0x1BD5B, size: 0x8, addend: 0x0, symName: __ZNKSt3__16vectorI5LaserNS_9allocatorIS1_EEE7__allocB8ne180100Ev, symObjAddr: 0x90C0, symBinAddr: 0x100009E30, symSize: 0x20 }
  - { offsetInCU: 0x1B8B8, offset: 0x1BD80, size: 0x8, addend: 0x0, symName: __ZNKSt3__19allocatorI5LaserE8max_sizeB8ne180100Ev, symObjAddr: 0x90E0, symBinAddr: 0x100009E50, symSize: 0x20 }
  - { offsetInCU: 0x1B8DD, offset: 0x1BDA5, size: 0x8, addend: 0x0, symName: __ZNKSt3__117__compressed_pairIP5LaserNS_9allocatorIS1_EEE6secondB8ne180100Ev, symObjAddr: 0x9100, symBinAddr: 0x100009E70, symSize: 0x20 }
  - { offsetInCU: 0x1B902, offset: 0x1BDCA, size: 0x8, addend: 0x0, symName: __ZNKSt3__122__compressed_pair_elemINS_9allocatorI5LaserEELi1ELb1EE5__getB8ne180100Ev, symObjAddr: 0x9120, symBinAddr: 0x100009E90, symSize: 0x10 }
  - { offsetInCU: 0x1B927, offset: 0x1BDEF, size: 0x8, addend: 0x0, symName: __ZNSt3__114__split_bufferI5LaserRNS_9allocatorIS1_EEEC2EmmS4_, symObjAddr: 0x9130, symBinAddr: 0x100009EA0, symSize: 0xD0 }
  - { offsetInCU: 0x1B999, offset: 0x1BE61, size: 0x8, addend: 0x0, symName: __ZNSt3__117__compressed_pairIP5LaserRNS_9allocatorIS1_EEEC1B8ne180100IDnS5_EEOT_OT0_, symObjAddr: 0x9200, symBinAddr: 0x100009F70, symSize: 0x30 }
  - { offsetInCU: 0x1B9F0, offset: 0x1BEB8, size: 0x8, addend: 0x0, symName: __ZNSt3__114__split_bufferI5LaserRNS_9allocatorIS1_EEE7__allocB8ne180100Ev, symObjAddr: 0x9270, symBinAddr: 0x100009FE0, symSize: 0x20 }
  - { offsetInCU: 0x1BA15, offset: 0x1BEDD, size: 0x8, addend: 0x0, symName: __ZNSt3__114__split_bufferI5LaserRNS_9allocatorIS1_EEE9__end_capB8ne180100Ev, symObjAddr: 0x9290, symBinAddr: 0x10000A000, symSize: 0x20 }
  - { offsetInCU: 0x1BA3A, offset: 0x1BF02, size: 0x8, addend: 0x0, symName: __ZNSt3__117__compressed_pairIP5LaserRNS_9allocatorIS1_EEEC2B8ne180100IDnS5_EEOT_OT0_, symObjAddr: 0x92B0, symBinAddr: 0x10000A020, symSize: 0x40 }
  - { offsetInCU: 0x1BA91, offset: 0x1BF59, size: 0x8, addend: 0x0, symName: __ZNSt3__122__compressed_pair_elemIRNS_9allocatorI5LaserEELi1ELb0EEC2B8ne180100IS4_vEEOT_, symObjAddr: 0x92F0, symBinAddr: 0x10000A060, symSize: 0x20 }
  - { offsetInCU: 0x1BAD2, offset: 0x1BF9A, size: 0x8, addend: 0x0, symName: __ZNSt3__19allocatorI5LaserE8allocateB8ne180100Em, symObjAddr: 0x9310, symBinAddr: 0x10000A080, symSize: 0x50 }
  - { offsetInCU: 0x1BB05, offset: 0x1BFCD, size: 0x8, addend: 0x0, symName: __ZNSt3__117__compressed_pairIP5LaserRNS_9allocatorIS1_EEE6secondB8ne180100Ev, symObjAddr: 0x9360, symBinAddr: 0x10000A0D0, symSize: 0x20 }
  - { offsetInCU: 0x1BB2A, offset: 0x1BFF2, size: 0x8, addend: 0x0, symName: __ZNSt3__122__compressed_pair_elemIRNS_9allocatorI5LaserEELi1ELb0EE5__getB8ne180100Ev, symObjAddr: 0x9380, symBinAddr: 0x10000A0F0, symSize: 0x20 }
  - { offsetInCU: 0x1BB4F, offset: 0x1C017, size: 0x8, addend: 0x0, symName: __ZNSt3__117__compressed_pairIP5LaserRNS_9allocatorIS1_EEE5firstB8ne180100Ev, symObjAddr: 0x93A0, symBinAddr: 0x10000A110, symSize: 0x20 }
  - { offsetInCU: 0x1BB74, offset: 0x1C03C, size: 0x8, addend: 0x0, symName: __ZNSt3__116reverse_iteratorIP5LaserEC1B8ne180100ES2_, symObjAddr: 0x9430, symBinAddr: 0x10000A1A0, symSize: 0x30 }
  - { offsetInCU: 0x1BBAB, offset: 0x1C073, size: 0x8, addend: 0x0, symName: __ZNKSt3__116reverse_iteratorIP5LaserE4baseB8ne180100Ev, symObjAddr: 0x9460, symBinAddr: 0x10000A1D0, symSize: 0x20 }
  - { offsetInCU: 0x1BBD0, offset: 0x1C098, size: 0x8, addend: 0x0, symName: __ZNKSt3__16vectorI5LaserNS_9allocatorIS1_EEE14__annotate_newB8ne180100Em, symObjAddr: 0x94C0, symBinAddr: 0x10000A230, symSize: 0x10 }
  - { offsetInCU: 0x1BC20, offset: 0x1C0E8, size: 0x8, addend: 0x0, symName: __ZNKSt3__111__move_loopINS_17_ClassicAlgPolicyEEclB8ne180100INS_16reverse_iteratorIP5LaserEES7_S7_EENS_4pairIT_T1_EES9_T0_SA_, symObjAddr: 0x9910, symBinAddr: 0x10000A680, symSize: 0xA0 }
  - { offsetInCU: 0x1BC90, offset: 0x1C158, size: 0x8, addend: 0x0, symName: __ZNSt3__18_IterOpsINS_17_ClassicAlgPolicyEE11__iter_moveB8ne180100IRNS_16reverse_iteratorIP5LaserEELi0EEEDTclsr3stdE4movedeclsr3stdE7declvalIRT_EEEEOS9_, symObjAddr: 0x9B30, symBinAddr: 0x10000A8A0, symSize: 0x20 }
  - { offsetInCU: 0x1BCC2, offset: 0x1C18A, size: 0x8, addend: 0x0, symName: __ZNKSt3__116reverse_iteratorIP5LaserEdeB8ne180100Ev, symObjAddr: 0x9B50, symBinAddr: 0x10000A8C0, symSize: 0x30 }
  - { offsetInCU: 0x1BCF5, offset: 0x1C1BD, size: 0x8, addend: 0x0, symName: __ZNSt3__116reverse_iteratorIP5LaserEppB8ne180100Ev, symObjAddr: 0x9B80, symBinAddr: 0x10000A8F0, symSize: 0x20 }
  - { offsetInCU: 0x1BD1A, offset: 0x1C1E2, size: 0x8, addend: 0x0, symName: __ZNSt3__18_IterOpsINS_17_ClassicAlgPolicyEE25__validate_iter_referenceB8ne180100IRNS_16reverse_iteratorIP5LaserEEEEvv, symObjAddr: 0x9BA0, symBinAddr: 0x10000A910, symSize: 0x10 }
  - { offsetInCU: 0x1BD38, offset: 0x1C200, size: 0x8, addend: 0x0, symName: __ZNSt3__118__unwrap_iter_implINS_16reverse_iteratorIP5LaserEELb0EE8__unwrapB8ne180100ES4_, symObjAddr: 0x9BB0, symBinAddr: 0x10000A920, symSize: 0x20 }
  - { offsetInCU: 0x1BD61, offset: 0x1C229, size: 0x8, addend: 0x0, symName: __ZNSt3__14pairINS_16reverse_iteratorIP5LaserEES4_EC1B8ne180100IS4_S4_Li0EEEOT_OT0_, symObjAddr: 0x9BD0, symBinAddr: 0x10000A940, symSize: 0x30 }
  - { offsetInCU: 0x1BDBE, offset: 0x1C286, size: 0x8, addend: 0x0, symName: __ZNSt3__14pairINS_16reverse_iteratorIP5LaserEES4_EC2B8ne180100IS4_S4_Li0EEEOT_OT0_, symObjAddr: 0x9C00, symBinAddr: 0x10000A970, symSize: 0x40 }
  - { offsetInCU: 0x1BE1B, offset: 0x1C2E3, size: 0x8, addend: 0x0, symName: __ZNSt3__118__unwrap_iter_implINS_16reverse_iteratorIP5LaserEELb0EE8__rewrapB8ne180100ES4_S4_, symObjAddr: 0x9C40, symBinAddr: 0x10000A9B0, symSize: 0x30 }
  - { offsetInCU: 0x1BE49, offset: 0x1C311, size: 0x8, addend: 0x0, symName: __ZNSt3__116reverse_iteratorIP5LaserEC2B8ne180100ES2_, symObjAddr: 0x9C70, symBinAddr: 0x10000A9E0, symSize: 0x30 }
  - { offsetInCU: 0x1BE80, offset: 0x1C348, size: 0x8, addend: 0x0, symName: __ZNSt3__114__split_bufferI5LaserRNS_9allocatorIS1_EEED2Ev, symObjAddr: 0x9CA0, symBinAddr: 0x10000AA10, symSize: 0x70 }
  - { offsetInCU: 0x1BEAB, offset: 0x1C373, size: 0x8, addend: 0x0, symName: __ZNSt3__114__split_bufferI5LaserRNS_9allocatorIS1_EEE5clearB8ne180100Ev, symObjAddr: 0x9D10, symBinAddr: 0x10000AA80, symSize: 0x20 }
  - { offsetInCU: 0x1BED0, offset: 0x1C398, size: 0x8, addend: 0x0, symName: __ZNKSt3__114__split_bufferI5LaserRNS_9allocatorIS1_EEE8capacityB8ne180100Ev, symObjAddr: 0x9D30, symBinAddr: 0x10000AAA0, symSize: 0x30 }
  - { offsetInCU: 0x1BEF5, offset: 0x1C3BD, size: 0x8, addend: 0x0, symName: __ZNSt3__114__split_bufferI5LaserRNS_9allocatorIS1_EEE17__destruct_at_endB8ne180100EPS1_, symObjAddr: 0x9D60, symBinAddr: 0x10000AAD0, symSize: 0x30 }
  - { offsetInCU: 0x1BF28, offset: 0x1C3F0, size: 0x8, addend: 0x0, symName: __ZNSt3__114__split_bufferI5LaserRNS_9allocatorIS1_EEE17__destruct_at_endB8ne180100EPS1_NS_17integral_constantIbLb0EEE, symObjAddr: 0x9D90, symBinAddr: 0x10000AB00, symSize: 0x80 }
  - { offsetInCU: 0x1BF68, offset: 0x1C430, size: 0x8, addend: 0x0, symName: __ZNKSt3__114__split_bufferI5LaserRNS_9allocatorIS1_EEE9__end_capB8ne180100Ev, symObjAddr: 0x9E10, symBinAddr: 0x10000AB80, symSize: 0x20 }
  - { offsetInCU: 0x1BF8D, offset: 0x1C455, size: 0x8, addend: 0x0, symName: __ZNKSt3__117__compressed_pairIP5LaserRNS_9allocatorIS1_EEE5firstB8ne180100Ev, symObjAddr: 0x9E30, symBinAddr: 0x10000ABA0, symSize: 0x20 }
  - { offsetInCU: 0x1BFB2, offset: 0x1C47A, size: 0x8, addend: 0x0, symName: __ZNKSt3__16vectorI5AlienNS_9allocatorIS1_EEE6cbeginB8ne180100Ev, symObjAddr: 0x9E90, symBinAddr: 0x10000AC00, symSize: 0x30 }
  - { offsetInCU: 0x1BFD7, offset: 0x1C49F, size: 0x8, addend: 0x0, symName: __ZNSt3__16vectorI5AlienNS_9allocatorIS1_EEE17__destruct_at_endB8ne180100EPS1_, symObjAddr: 0x9EC0, symBinAddr: 0x10000AC30, symSize: 0x50 }
  - { offsetInCU: 0x1C01A, offset: 0x1C4E2, size: 0x8, addend: 0x0, symName: __ZNKSt3__111__wrap_iterIPK5AlienE4baseB8ne180100Ev, symObjAddr: 0x9F50, symBinAddr: 0x10000ACC0, symSize: 0x20 }
  - { offsetInCU: 0x1C03F, offset: 0x1C507, size: 0x8, addend: 0x0, symName: __ZNKSt3__16vectorI5AlienNS_9allocatorIS1_EEE5beginB8ne180100Ev, symObjAddr: 0x9F70, symBinAddr: 0x10000ACE0, symSize: 0x30 }
  - { offsetInCU: 0x1C066, offset: 0x1C52E, size: 0x8, addend: 0x0, symName: __ZNKSt3__16vectorI5AlienNS_9allocatorIS1_EEE11__make_iterB8ne180100EPKS1_, symObjAddr: 0x9FA0, symBinAddr: 0x10000AD10, symSize: 0x30 }
  - { offsetInCU: 0x1C09A, offset: 0x1C562, size: 0x8, addend: 0x0, symName: __ZNSt3__111__wrap_iterIPK5AlienEC1B8ne180100ES3_, symObjAddr: 0x9FD0, symBinAddr: 0x10000AD40, symSize: 0x30 }
  - { offsetInCU: 0x1C0D1, offset: 0x1C599, size: 0x8, addend: 0x0, symName: __ZNSt3__111__wrap_iterIPK5AlienEC2B8ne180100ES3_, symObjAddr: 0xA000, symBinAddr: 0x10000AD70, symSize: 0x20 }
  - { offsetInCU: 0x1C108, offset: 0x1C5D0, size: 0x8, addend: 0x0, symName: __ZNKSt3__16vectorI5AlienNS_9allocatorIS1_EEE17__annotate_shrinkB8ne180100Em, symObjAddr: 0xA020, symBinAddr: 0x10000AD90, symSize: 0x10 }
  - { offsetInCU: 0x1C158, offset: 0x1C620, size: 0x8, addend: 0x0, symName: __ZNKSt3__114__move_trivialclB8ne180100I5AlienS2_Li0EEENS_4pairIPT_PT0_EES5_S5_S7_, symObjAddr: 0xA1B0, symBinAddr: 0x10000AF20, symSize: 0x40 }
  - { offsetInCU: 0x1C1C5, offset: 0x1C68D, size: 0x8, addend: 0x0, symName: __ZNSt3__14pairIP5AlienS2_EC1B8ne180100IRS2_S2_Li0EEEOT_OT0_, symObjAddr: 0xA3B0, symBinAddr: 0x10000B120, symSize: 0x30 }
  - { offsetInCU: 0x1C222, offset: 0x1C6EA, size: 0x8, addend: 0x0, symName: __ZNSt3__14pairIP5AlienS2_EC2B8ne180100IRS2_S2_Li0EEEOT_OT0_, symObjAddr: 0xA3E0, symBinAddr: 0x10000B150, symSize: 0x30 }
  - { offsetInCU: 0x1C27F, offset: 0x1C747, size: 0x8, addend: 0x0, symName: __ZNSt3__118__unwrap_iter_implIP5AlienLb1EE8__unwrapB8ne180100ES2_, symObjAddr: 0xA410, symBinAddr: 0x10000B180, symSize: 0x20 }
  - { offsetInCU: 0x1C2A2, offset: 0x1C76A, size: 0x8, addend: 0x0, symName: __ZNSt3__14pairIP5AlienS2_EC1B8ne180100IS2_S2_Li0EEEOT_OT0_, symObjAddr: 0xA430, symBinAddr: 0x10000B1A0, symSize: 0x30 }
  - { offsetInCU: 0x1C2FF, offset: 0x1C7C7, size: 0x8, addend: 0x0, symName: __ZNSt3__14pairIP5AlienS2_EC2B8ne180100IS2_S2_Li0EEEOT_OT0_, symObjAddr: 0xA460, symBinAddr: 0x10000B1D0, symSize: 0x30 }
  - { offsetInCU: 0x1C35C, offset: 0x1C824, size: 0x8, addend: 0x0, symName: __ZNSt3__118__unwrap_iter_implIP5AlienLb1EE8__rewrapB8ne180100ES2_S2_, symObjAddr: 0xA490, symBinAddr: 0x10000B200, symSize: 0x60 }
  - { offsetInCU: 0x1C38D, offset: 0x1C855, size: 0x8, addend: 0x0, symName: __ZNSt3__16vectorI5BlockNS_9allocatorIS1_EEE11__make_iterB8ne180100EPS1_, symObjAddr: 0xA4F0, symBinAddr: 0x10000B260, symSize: 0x30 }
  - { offsetInCU: 0x1C3C1, offset: 0x1C889, size: 0x8, addend: 0x0, symName: __ZNSt3__111__wrap_iterIP5BlockEC1B8ne180100ES2_, symObjAddr: 0xA520, symBinAddr: 0x10000B290, symSize: 0x30 }
  - { offsetInCU: 0x1C3F8, offset: 0x1C8C0, size: 0x8, addend: 0x0, symName: __ZNSt3__111__wrap_iterIP5BlockEC2B8ne180100ES2_, symObjAddr: 0xA550, symBinAddr: 0x10000B2C0, symSize: 0x20 }
  - { offsetInCU: 0x1C42F, offset: 0x1C8F7, size: 0x8, addend: 0x0, symName: __ZNKSt3__16vectorI5BlockNS_9allocatorIS1_EEE6cbeginB8ne180100Ev, symObjAddr: 0xA5B0, symBinAddr: 0x10000B320, symSize: 0x30 }
  - { offsetInCU: 0x1C454, offset: 0x1C91C, size: 0x8, addend: 0x0, symName: __ZNSt3__16vectorI5BlockNS_9allocatorIS1_EEE17__destruct_at_endB8ne180100EPS1_, symObjAddr: 0xA5E0, symBinAddr: 0x10000B350, symSize: 0x50 }
  - { offsetInCU: 0x1C497, offset: 0x1C95F, size: 0x8, addend: 0x0, symName: __ZNKSt3__111__wrap_iterIPK5BlockE4baseB8ne180100Ev, symObjAddr: 0xA670, symBinAddr: 0x10000B3E0, symSize: 0x20 }
  - { offsetInCU: 0x1C4BC, offset: 0x1C984, size: 0x8, addend: 0x0, symName: __ZNKSt3__16vectorI5BlockNS_9allocatorIS1_EEE5beginB8ne180100Ev, symObjAddr: 0xA690, symBinAddr: 0x10000B400, symSize: 0x30 }
  - { offsetInCU: 0x1C4E3, offset: 0x1C9AB, size: 0x8, addend: 0x0, symName: __ZNKSt3__16vectorI5BlockNS_9allocatorIS1_EEE11__make_iterB8ne180100EPKS1_, symObjAddr: 0xA6C0, symBinAddr: 0x10000B430, symSize: 0x30 }
  - { offsetInCU: 0x1C517, offset: 0x1C9DF, size: 0x8, addend: 0x0, symName: __ZNSt3__111__wrap_iterIPK5BlockEC1B8ne180100ES3_, symObjAddr: 0xA6F0, symBinAddr: 0x10000B460, symSize: 0x30 }
  - { offsetInCU: 0x1C54E, offset: 0x1CA16, size: 0x8, addend: 0x0, symName: __ZNSt3__111__wrap_iterIPK5BlockEC2B8ne180100ES3_, symObjAddr: 0xA720, symBinAddr: 0x10000B490, symSize: 0x20 }
  - { offsetInCU: 0x1C585, offset: 0x1CA4D, size: 0x8, addend: 0x0, symName: __ZNKSt3__16vectorI5BlockNS_9allocatorIS1_EEE17__annotate_shrinkB8ne180100Em, symObjAddr: 0xA740, symBinAddr: 0x10000B4B0, symSize: 0x10 }
  - { offsetInCU: 0x1C5B9, offset: 0x1CA81, size: 0x8, addend: 0x0, symName: __ZNKSt3__114__move_trivialclB8ne180100I5BlockS2_Li0EEENS_4pairIPT_PT0_EES5_S5_S7_, symObjAddr: 0xA880, symBinAddr: 0x10000B5F0, symSize: 0x40 }
  - { offsetInCU: 0x1C620, offset: 0x1CAE8, size: 0x8, addend: 0x0, symName: __ZNSt3__16vectorI8ObstacleNS_9allocatorIS1_EEE13__move_assignERS4_NS_17integral_constantIbLb1EEE, symObjAddr: 0xA8C0, symBinAddr: 0x10000B630, symSize: 0xA0 }
  - { offsetInCU: 0x1C661, offset: 0x1CB29, size: 0x8, addend: 0x0, symName: __ZNSt3__16vectorI8ObstacleNS_9allocatorIS1_EEE13__vdeallocateEv, symObjAddr: 0xA960, symBinAddr: 0x10000B6D0, symSize: 0x90 }
  - { offsetInCU: 0x1C688, offset: 0x1CB50, size: 0x8, addend: 0x0, symName: __ZNSt3__16vectorI8ObstacleNS_9allocatorIS1_EEE19__move_assign_allocB8ne180100ERS4_, symObjAddr: 0xA9F0, symBinAddr: 0x10000B760, symSize: 0x30 }
  - { offsetInCU: 0x1C6BC, offset: 0x1CB84, size: 0x8, addend: 0x0, symName: __ZNSt3__16vectorI8ObstacleNS_9allocatorIS1_EEE19__move_assign_allocB8ne180100ERS4_NS_17integral_constantIbLb1EEE, symObjAddr: 0xAA20, symBinAddr: 0x10000B790, symSize: 0x30 }
  - { offsetInCU: 0x1C6FB, offset: 0x1CBC3, size: 0x8, addend: 0x0, symName: __ZNSt3__16vectorI5AlienNS_9allocatorIS1_EEE13__move_assignERS4_NS_17integral_constantIbLb1EEE, symObjAddr: 0xAA50, symBinAddr: 0x10000B7C0, symSize: 0xA0 }
  - { offsetInCU: 0x1C73C, offset: 0x1CC04, size: 0x8, addend: 0x0, symName: __ZNSt3__16vectorI5AlienNS_9allocatorIS1_EEE13__vdeallocateEv, symObjAddr: 0xAAF0, symBinAddr: 0x10000B860, symSize: 0x90 }
  - { offsetInCU: 0x1C763, offset: 0x1CC2B, size: 0x8, addend: 0x0, symName: __ZNSt3__16vectorI5AlienNS_9allocatorIS1_EEE19__move_assign_allocB8ne180100ERS4_, symObjAddr: 0xAB80, symBinAddr: 0x10000B8F0, symSize: 0x30 }
  - { offsetInCU: 0x1C797, offset: 0x1CC5F, size: 0x8, addend: 0x0, symName: __ZNSt3__16vectorI5AlienNS_9allocatorIS1_EEE19__move_assign_allocB8ne180100ERS4_NS_17integral_constantIbLb1EEE, symObjAddr: 0xABB0, symBinAddr: 0x10000B920, symSize: 0x30 }
  - { offsetInCU: 0x1C7D6, offset: 0x1CC9E, size: 0x8, addend: 0x0, symName: __ZNSt3__19basic_iosIcNS_11char_traitsIcEEEC2B8ne180100Ev, symObjAddr: 0xABE0, symBinAddr: 0x10000B950, symSize: 0x40 }
  - { offsetInCU: 0x1C7FF, offset: 0x1CCC7, size: 0x8, addend: 0x0, symName: __ZNSt3__113basic_ostreamIcNS_11char_traitsIcEEEC2B8ne180100EPNS_15basic_streambufIcS2_EE, symObjAddr: 0xAC20, symBinAddr: 0x10000B990, symSize: 0x50 }
  - { offsetInCU: 0x1C842, offset: 0x1CD0A, size: 0x8, addend: 0x0, symName: __ZNSt3__19basic_iosIcNS_11char_traitsIcEEE8setstateB8ne180100Ej, symObjAddr: 0xAC70, symBinAddr: 0x10000B9E0, symSize: 0x30 }
  - { offsetInCU: 0x1C876, offset: 0x1CD3E, size: 0x8, addend: 0x0, symName: __ZNSt3__18ios_baseC2B8ne180100Ev, symObjAddr: 0xACA0, symBinAddr: 0x10000BA10, symSize: 0x20 }
  - { offsetInCU: 0x1C89F, offset: 0x1CD67, size: 0x8, addend: 0x0, symName: __ZNSt3__19basic_iosIcNS_11char_traitsIcEEE4initB8ne180100EPNS_15basic_streambufIcS2_EE, symObjAddr: 0xACC0, symBinAddr: 0x10000BA30, symSize: 0x50 }
  - { offsetInCU: 0x1C8D5, offset: 0x1CD9D, size: 0x8, addend: 0x0, symName: __ZNSt3__111char_traitsIcE3eofB8ne180100Ev, symObjAddr: 0xAD10, symBinAddr: 0x10000BA80, symSize: 0x10 }
  - { offsetInCU: 0x1C8E9, offset: 0x1CDB1, size: 0x8, addend: 0x0, symName: __ZNSt3__18ios_base8setstateB8ne180100Ej, symObjAddr: 0xAD20, symBinAddr: 0x10000BA90, symSize: 0x30 }
  - { offsetInCU: 0x1C91F, offset: 0x1CDE7, size: 0x8, addend: 0x0, symName: __ZNKSt3__113basic_filebufIcNS_11char_traitsIcEEE7is_openEv, symObjAddr: 0xAD50, symBinAddr: 0x10000BAC0, symSize: 0x20 }
  - { offsetInCU: 0x1C946, offset: 0x1CE0E, size: 0x8, addend: 0x0, symName: __ZNSt3__111char_traitsIcE6lengthB8ne180100EPKc, symObjAddr: 0xAF60, symBinAddr: 0x10000BCD0, symSize: 0x30 }
  - { offsetInCU: 0x1C98A, offset: 0x1CE52, size: 0x8, addend: 0x0, symName: __ZNKSt3__113basic_ostreamIcNS_11char_traitsIcEEE6sentrycvbB8ne180100Ev, symObjAddr: 0xAF90, symBinAddr: 0x10000BD00, symSize: 0x20 }
  - { offsetInCU: 0x1C9AF, offset: 0x1CE77, size: 0x8, addend: 0x0, symName: __ZNSt3__119ostreambuf_iteratorIcNS_11char_traitsIcEEEC1B8ne180100ERNS_13basic_ostreamIcS2_EE, symObjAddr: 0xB1D0, symBinAddr: 0x10000BF40, symSize: 0x30 }
  - { offsetInCU: 0x1C9E6, offset: 0x1CEAE, size: 0x8, addend: 0x0, symName: __ZNKSt3__18ios_base5flagsB8ne180100Ev, symObjAddr: 0xB200, symBinAddr: 0x10000BF70, symSize: 0x20 }
  - { offsetInCU: 0x1CA0D, offset: 0x1CED5, size: 0x8, addend: 0x0, symName: __ZNKSt3__19basic_iosIcNS_11char_traitsIcEEE4fillB8ne180100Ev, symObjAddr: 0xB220, symBinAddr: 0x10000BF90, symSize: 0x70 }
  - { offsetInCU: 0x1CA34, offset: 0x1CEFC, size: 0x8, addend: 0x0, symName: __ZNKSt3__119ostreambuf_iteratorIcNS_11char_traitsIcEEE6failedB8ne180100Ev, symObjAddr: 0xB290, symBinAddr: 0x10000C000, symSize: 0x20 }
  - { offsetInCU: 0x1CA59, offset: 0x1CF21, size: 0x8, addend: 0x0, symName: __ZNKSt3__18ios_base5widthB8ne180100Ev, symObjAddr: 0xB2B0, symBinAddr: 0x10000C020, symSize: 0x20 }
  - { offsetInCU: 0x1CA80, offset: 0x1CF48, size: 0x8, addend: 0x0, symName: __ZNSt3__115basic_streambufIcNS_11char_traitsIcEEE5sputnB8ne180100EPKcl, symObjAddr: 0xB2D0, symBinAddr: 0x10000C040, symSize: 0x30 }
  - { offsetInCU: 0x1CAC1, offset: 0x1CF89, size: 0x8, addend: 0x0, symName: __ZNSt3__112basic_stringIcNS_11char_traitsIcEENS_9allocatorIcEEEC1B8ne180100Emc, symObjAddr: 0xB300, symBinAddr: 0x10000C070, symSize: 0x30 }
  - { offsetInCU: 0x1CB08, offset: 0x1CFD0, size: 0x8, addend: 0x0, symName: __ZNKSt3__112basic_stringIcNS_11char_traitsIcEENS_9allocatorIcEEE4dataB8ne180100Ev, symObjAddr: 0xB330, symBinAddr: 0x10000C0A0, symSize: 0x30 }
  - { offsetInCU: 0x1CB2D, offset: 0x1CFF5, size: 0x8, addend: 0x0, symName: __ZNSt3__18ios_base5widthB8ne180100El, symObjAddr: 0xB360, symBinAddr: 0x10000C0D0, symSize: 0x30 }
  - { offsetInCU: 0x1CB72, offset: 0x1D03A, size: 0x8, addend: 0x0, symName: __ZNSt3__112basic_stringIcNS_11char_traitsIcEENS_9allocatorIcEEEC2B8ne180100Emc, symObjAddr: 0xB390, symBinAddr: 0x10000C100, symSize: 0x50 }
  - { offsetInCU: 0x1CBB9, offset: 0x1D081, size: 0x8, addend: 0x0, symName: __ZNSt3__117__compressed_pairINS_12basic_stringIcNS_11char_traitsIcEENS_9allocatorIcEEE5__repES5_EC1B8ne180100INS_18__default_init_tagESA_EEOT_OT0_, symObjAddr: 0xB3E0, symBinAddr: 0x10000C150, symSize: 0x30 }
  - { offsetInCU: 0x1CC10, offset: 0x1D0D8, size: 0x8, addend: 0x0, symName: __ZNSt3__117__compressed_pairINS_12basic_stringIcNS_11char_traitsIcEENS_9allocatorIcEEE5__repES5_EC2B8ne180100INS_18__default_init_tagESA_EEOT_OT0_, symObjAddr: 0xB410, symBinAddr: 0x10000C180, symSize: 0x30 }
  - { offsetInCU: 0x1CC67, offset: 0x1D12F, size: 0x8, addend: 0x0, symName: __ZNSt3__122__compressed_pair_elemINS_12basic_stringIcNS_11char_traitsIcEENS_9allocatorIcEEE5__repELi0ELb0EEC2B8ne180100ENS_18__default_init_tagE, symObjAddr: 0xB440, symBinAddr: 0x10000C1B0, symSize: 0x10 }
  - { offsetInCU: 0x1CC9B, offset: 0x1D163, size: 0x8, addend: 0x0, symName: __ZNSt3__122__compressed_pair_elemINS_9allocatorIcEELi1ELb1EEC2B8ne180100ENS_18__default_init_tagE, symObjAddr: 0xB450, symBinAddr: 0x10000C1C0, symSize: 0x20 }
  - { offsetInCU: 0x1CCCF, offset: 0x1D197, size: 0x8, addend: 0x0, symName: __ZNSt3__19allocatorIcEC2B8ne180100Ev, symObjAddr: 0xB470, symBinAddr: 0x10000C1E0, symSize: 0x20 }
  - { offsetInCU: 0x1CCF8, offset: 0x1D1C0, size: 0x8, addend: 0x0, symName: __ZNSt3__116__non_trivial_ifILb1ENS_9allocatorIcEEEC2B8ne180100Ev, symObjAddr: 0xB490, symBinAddr: 0x10000C200, symSize: 0x10 }
  - { offsetInCU: 0x1CD21, offset: 0x1D1E9, size: 0x8, addend: 0x0, symName: __ZNKSt3__112basic_stringIcNS_11char_traitsIcEENS_9allocatorIcEEE13__get_pointerB8ne180100Ev, symObjAddr: 0xB4B0, symBinAddr: 0x10000C220, symSize: 0x50 }
  - { offsetInCU: 0x1CD46, offset: 0x1D20E, size: 0x8, addend: 0x0, symName: __ZNKSt3__112basic_stringIcNS_11char_traitsIcEENS_9allocatorIcEEE9__is_longB8ne180100Ev, symObjAddr: 0xB500, symBinAddr: 0x10000C270, symSize: 0x30 }
  - { offsetInCU: 0x1CD6B, offset: 0x1D233, size: 0x8, addend: 0x0, symName: __ZNKSt3__112basic_stringIcNS_11char_traitsIcEENS_9allocatorIcEEE18__get_long_pointerB8ne180100Ev, symObjAddr: 0xB530, symBinAddr: 0x10000C2A0, symSize: 0x20 }
  - { offsetInCU: 0x1CD90, offset: 0x1D258, size: 0x8, addend: 0x0, symName: __ZNKSt3__112basic_stringIcNS_11char_traitsIcEENS_9allocatorIcEEE19__get_short_pointerB8ne180100Ev, symObjAddr: 0xB550, symBinAddr: 0x10000C2C0, symSize: 0x30 }
  - { offsetInCU: 0x1CDB5, offset: 0x1D27D, size: 0x8, addend: 0x0, symName: __ZNKSt3__117__compressed_pairINS_12basic_stringIcNS_11char_traitsIcEENS_9allocatorIcEEE5__repES5_E5firstB8ne180100Ev, symObjAddr: 0xB580, symBinAddr: 0x10000C2F0, symSize: 0x20 }
  - { offsetInCU: 0x1CDDA, offset: 0x1D2A2, size: 0x8, addend: 0x0, symName: __ZNKSt3__122__compressed_pair_elemINS_12basic_stringIcNS_11char_traitsIcEENS_9allocatorIcEEE5__repELi0ELb0EE5__getB8ne180100Ev, symObjAddr: 0xB5A0, symBinAddr: 0x10000C310, symSize: 0x10 }
  - { offsetInCU: 0x1CDFF, offset: 0x1D2C7, size: 0x8, addend: 0x0, symName: __ZNSt3__114pointer_traitsIPKcE10pointer_toB8ne180100ERS1_, symObjAddr: 0xB5B0, symBinAddr: 0x10000C320, symSize: 0x10 }
  - { offsetInCU: 0x1CE22, offset: 0x1D2EA, size: 0x8, addend: 0x0, symName: __ZNSt3__119ostreambuf_iteratorIcNS_11char_traitsIcEEEC2B8ne180100ERNS_13basic_ostreamIcS2_EE, symObjAddr: 0xB5C0, symBinAddr: 0x10000C330, symSize: 0x50 }
  - { offsetInCU: 0x1CE59, offset: 0x1D321, size: 0x8, addend: 0x0, symName: __ZNKSt3__19basic_iosIcNS_11char_traitsIcEEE5rdbufB8ne180100Ev, symObjAddr: 0xB610, symBinAddr: 0x10000C380, symSize: 0x20 }
  - { offsetInCU: 0x1CE80, offset: 0x1D348, size: 0x8, addend: 0x0, symName: __ZNKSt3__18ios_base5rdbufB8ne180100Ev, symObjAddr: 0xB630, symBinAddr: 0x10000C3A0, symSize: 0x20 }
  - { offsetInCU: 0x1CEA5, offset: 0x1D36D, size: 0x8, addend: 0x0, symName: __ZNSt3__111char_traitsIcE11eq_int_typeB8ne180100Eii, symObjAddr: 0xB650, symBinAddr: 0x10000C3C0, symSize: 0x20 }
  - { offsetInCU: 0x1CED8, offset: 0x1D3A0, size: 0x8, addend: 0x0, symName: __ZNKSt3__19basic_iosIcNS_11char_traitsIcEEE5widenB8ne180100Ec, symObjAddr: 0xB670, symBinAddr: 0x10000C3E0, symSize: 0x80 }
  - { offsetInCU: 0x1CF40, offset: 0x1D408, size: 0x8, addend: 0x0, symName: __ZNKSt3__15ctypeIcE5widenB8ne180100Ec, symObjAddr: 0xB720, symBinAddr: 0x10000C490, symSize: 0x30 }
  - { offsetInCU: 0x1CF74, offset: 0x1D43C, size: 0x8, addend: 0x0, symName: __ZNSt3__113basic_istreamIcNS_11char_traitsIcEEEC2B8ne180100EPNS_15basic_streambufIcS2_EE, symObjAddr: 0xB770, symBinAddr: 0x10000C4E0, symSize: 0x50 }
  - { offsetInCU: 0x1CFB7, offset: 0x1D47F, size: 0x8, addend: 0x0, symName: __ZNKSt3__16vectorI8ObstacleNS_9allocatorIS1_EEE17__annotate_shrinkB8ne180100Em, symObjAddr: 0xB7C0, symBinAddr: 0x10000C530, symSize: 0xE }
  - { offsetInCU: 0x26, offset: 0x1D741, size: 0x8, addend: 0x0, symName: __ZN5LaserC2E7Vector2i, symObjAddr: 0x0, symBinAddr: 0x10000C540, symSize: 0x30 }
  - { offsetInCU: 0x2A71, offset: 0x2018C, size: 0x8, addend: 0x0, symName: __ZN5LaserC2E7Vector2i, symObjAddr: 0x0, symBinAddr: 0x10000C540, symSize: 0x30 }
  - { offsetInCU: 0x2AB7, offset: 0x201D2, size: 0x8, addend: 0x0, symName: __ZN5LaserC1E7Vector2i, symObjAddr: 0x30, symBinAddr: 0x10000C570, symSize: 0x30 }
  - { offsetInCU: 0x2AFD, offset: 0x20218, size: 0x8, addend: 0x0, symName: __ZN5Laser4DrawEv, symObjAddr: 0x60, symBinAddr: 0x10000C5A0, symSize: 0x60 }
  - { offsetInCU: 0x2B23, offset: 0x2023E, size: 0x8, addend: 0x0, symName: __ZN5Laser7getRectEv, symObjAddr: 0xC0, symBinAddr: 0x10000C600, symSize: 0x40 }
  - { offsetInCU: 0x2B57, offset: 0x20272, size: 0x8, addend: 0x0, symName: __ZN5Laser6UpdateEv, symObjAddr: 0x100, symBinAddr: 0x10000C640, symSize: 0x7C }
  - { offsetInCU: 0x2B61, offset: 0x22DFE, size: 0x8, addend: 0x0, symName: __ZNSt3__1plB8ne180100IcNS_11char_traitsIcEENS_9allocatorIcEEEENS_12basic_stringIT_T0_T1_EEOS9_RKS9_, symObjAddr: 0x140, symBinAddr: 0x10000C800, symSize: 0x50 }
  - { offsetInCU: 0x74E0, offset: 0x2777D, size: 0x8, addend: 0x0, symName: __Z22FormatWithLeadingZerosii, symObjAddr: 0x0, symBinAddr: 0x10000C6C0, symSize: 0x120 }
  - { offsetInCU: 0x7536, offset: 0x277D3, size: 0x8, addend: 0x0, symName: __ZNKSt3__112basic_stringIcNS_11char_traitsIcEENS_9allocatorIcEEE6lengthB8ne180100Ev, symObjAddr: 0x120, symBinAddr: 0x10000C7E0, symSize: 0x20 }
  - { offsetInCU: 0x755B, offset: 0x277F8, size: 0x8, addend: 0x0, symName: __ZNSt3__112basic_stringIcNS_11char_traitsIcEENS_9allocatorIcEEEaSB8ne180100EOS5_, symObjAddr: 0x1C0, symBinAddr: 0x10000C850, symSize: 0x30 }
  - { offsetInCU: 0x758F, offset: 0x2782C, size: 0x8, addend: 0x0, symName: _main, symObjAddr: 0x1F0, symBinAddr: 0x10000C880, symSize: 0x7A0 }
  - { offsetInCU: 0x766D, offset: 0x2790A, size: 0x8, addend: 0x0, symName: __ZNKSt3__112basic_stringIcNS_11char_traitsIcEENS_9allocatorIcEEE5c_strB8ne180100Ev, symObjAddr: 0x990, symBinAddr: 0x10000D020, symSize: 0x20 }
  - { offsetInCU: 0x7692, offset: 0x2792F, size: 0x8, addend: 0x0, symName: __ZNKSt3__112basic_stringIcNS_11char_traitsIcEENS_9allocatorIcEEE4sizeB8ne180100Ev, symObjAddr: 0x9B0, symBinAddr: 0x10000D040, symSize: 0x50 }
  - { offsetInCU: 0x76B7, offset: 0x27954, size: 0x8, addend: 0x0, symName: __ZNKSt3__112basic_stringIcNS_11char_traitsIcEENS_9allocatorIcEEE15__get_long_sizeB8ne180100Ev, symObjAddr: 0xA30, symBinAddr: 0x10000D090, symSize: 0x20 }
  - { offsetInCU: 0x76DC, offset: 0x27979, size: 0x8, addend: 0x0, symName: __ZNKSt3__112basic_stringIcNS_11char_traitsIcEENS_9allocatorIcEEE16__get_short_sizeB8ne180100Ev, symObjAddr: 0xA50, symBinAddr: 0x10000D0B0, symSize: 0x30 }
  - { offsetInCU: 0x7701, offset: 0x2799E, size: 0x8, addend: 0x0, symName: __ZNSt3__112basic_stringIcNS_11char_traitsIcEENS_9allocatorIcEEE6appendB8ne180100ERKS5_, symObjAddr: 0xBC0, symBinAddr: 0x10000D0E0, symSize: 0x50 }
  - { offsetInCU: 0x7735, offset: 0x279D2, size: 0x8, addend: 0x0, symName: __ZNSt3__112basic_stringIcNS_11char_traitsIcEENS_9allocatorIcEEEC1B8ne180100EOS5_, symObjAddr: 0xC10, symBinAddr: 0x10000D130, symSize: 0x30 }
  - { offsetInCU: 0x776D, offset: 0x27A0A, size: 0x8, addend: 0x0, symName: __ZNSt3__112basic_stringIcNS_11char_traitsIcEENS_9allocatorIcEEEC2B8ne180100EOS5_, symObjAddr: 0xD30, symBinAddr: 0x10000D160, symSize: 0xD0 }
  - { offsetInCU: 0x77D6, offset: 0x27A73, size: 0x8, addend: 0x0, symName: __ZZNSt3__112basic_stringIcNS_11char_traitsIcEENS_9allocatorIcEEEC1B8ne180100EOS5_ENKUlRS5_E_clES7_, symObjAddr: 0xE00, symBinAddr: 0x10000D230, symSize: 0x40 }
  - { offsetInCU: 0x780E, offset: 0x27AAB, size: 0x8, addend: 0x0, symName: __ZNSt3__117__compressed_pairINS_12basic_stringIcNS_11char_traitsIcEENS_9allocatorIcEEE5__repES5_E5firstB8ne180100Ev, symObjAddr: 0xE50, symBinAddr: 0x10000D270, symSize: 0x20 }
  - { offsetInCU: 0x7833, offset: 0x27AD0, size: 0x8, addend: 0x0, symName: __ZNKSt3__112basic_stringIcNS_11char_traitsIcEENS_9allocatorIcEEE14__annotate_newB8ne180100Em, symObjAddr: 0xE70, symBinAddr: 0x10000D290, symSize: 0x10 }
  - { offsetInCU: 0x7867, offset: 0x27B04, size: 0x8, addend: 0x0, symName: __ZNKSt3__112basic_stringIcNS_11char_traitsIcEENS_9allocatorIcEEE17__annotate_deleteB8ne180100Ev, symObjAddr: 0xE80, symBinAddr: 0x10000D2A0, symSize: 0x10 }
  - { offsetInCU: 0x788C, offset: 0x27B29, size: 0x8, addend: 0x0, symName: __ZNSt3__122__compressed_pair_elemINS_12basic_stringIcNS_11char_traitsIcEENS_9allocatorIcEEE5__repELi0ELb0EE5__getB8ne180100Ev, symObjAddr: 0xE90, symBinAddr: 0x10000D2B0, symSize: 0x10 }
  - { offsetInCU: 0x78B1, offset: 0x27B4E, size: 0x8, addend: 0x0, symName: __ZNSt3__112basic_stringIcNS_11char_traitsIcEENS_9allocatorIcEEE13__move_assignB8ne180100ERS5_NS_17integral_constantIbLb1EEE, symObjAddr: 0xEA0, symBinAddr: 0x10000D2C0, symSize: 0x160 }
  - { offsetInCU: 0x7910, offset: 0x27BAD, size: 0x8, addend: 0x0, symName: __ZNSt3__116allocator_traitsINS_9allocatorIcEEE10deallocateB8ne180100ERS2_Pcm, symObjAddr: 0x1000, symBinAddr: 0x10000D420, symSize: 0x30 }
  - { offsetInCU: 0x7952, offset: 0x27BEF, size: 0x8, addend: 0x0, symName: __ZNSt3__112basic_stringIcNS_11char_traitsIcEENS_9allocatorIcEEE7__allocB8ne180100Ev, symObjAddr: 0x1030, symBinAddr: 0x10000D450, symSize: 0x20 }
  - { offsetInCU: 0x7977, offset: 0x27C14, size: 0x8, addend: 0x0, symName: __ZNSt3__112basic_stringIcNS_11char_traitsIcEENS_9allocatorIcEEE18__get_long_pointerB8ne180100Ev, symObjAddr: 0x1050, symBinAddr: 0x10000D470, symSize: 0x20 }
  - { offsetInCU: 0x799C, offset: 0x27C39, size: 0x8, addend: 0x0, symName: __ZNKSt3__112basic_stringIcNS_11char_traitsIcEENS_9allocatorIcEEE14__get_long_capB8ne180100Ev, symObjAddr: 0x1070, symBinAddr: 0x10000D490, symSize: 0x30 }
  - { offsetInCU: 0x79C1, offset: 0x27C5E, size: 0x8, addend: 0x0, symName: __ZNSt3__112basic_stringIcNS_11char_traitsIcEENS_9allocatorIcEEE19__move_assign_allocB8ne180100ERS5_, symObjAddr: 0x10A0, symBinAddr: 0x10000D4C0, symSize: 0x30 }
  - { offsetInCU: 0x79F5, offset: 0x27C92, size: 0x8, addend: 0x0, symName: __ZNSt3__112basic_stringIcNS_11char_traitsIcEENS_9allocatorIcEEE16__set_short_sizeB8ne180100Em, symObjAddr: 0x10D0, symBinAddr: 0x10000D4F0, symSize: 0x50 }
  - { offsetInCU: 0x7A29, offset: 0x27CC6, size: 0x8, addend: 0x0, symName: __ZNSt3__111char_traitsIcE6assignB8ne180100ERcRKc, symObjAddr: 0x1120, symBinAddr: 0x10000D540, symSize: 0x20 }
  - { offsetInCU: 0x7A5A, offset: 0x27CF7, size: 0x8, addend: 0x0, symName: __ZNSt3__112basic_stringIcNS_11char_traitsIcEENS_9allocatorIcEEE19__get_short_pointerB8ne180100Ev, symObjAddr: 0x1140, symBinAddr: 0x10000D560, symSize: 0x30 }
  - { offsetInCU: 0x7A7F, offset: 0x27D1C, size: 0x8, addend: 0x0, symName: __ZNKSt3__112basic_stringIcNS_11char_traitsIcEENS_9allocatorIcEEE17__annotate_shrinkB8ne180100Em, symObjAddr: 0x1170, symBinAddr: 0x10000D590, symSize: 0x10 }
  - { offsetInCU: 0x7AB3, offset: 0x27D50, size: 0x8, addend: 0x0, symName: __ZNSt3__19allocatorIcE10deallocateB8ne180100EPcm, symObjAddr: 0x1180, symBinAddr: 0x10000D5A0, symSize: 0x40 }
  - { offsetInCU: 0x7AF4, offset: 0x27D91, size: 0x8, addend: 0x0, symName: __ZNSt3__117__compressed_pairINS_12basic_stringIcNS_11char_traitsIcEENS_9allocatorIcEEE5__repES5_E6secondB8ne180100Ev, symObjAddr: 0x1230, symBinAddr: 0x10000D5E0, symSize: 0x20 }
  - { offsetInCU: 0x7B19, offset: 0x27DB6, size: 0x8, addend: 0x0, symName: __ZNSt3__122__compressed_pair_elemINS_9allocatorIcEELi1ELb1EE5__getB8ne180100Ev, symObjAddr: 0x1250, symBinAddr: 0x10000D600, symSize: 0x10 }
  - { offsetInCU: 0x7B3E, offset: 0x27DDB, size: 0x8, addend: 0x0, symName: __ZNSt3__112basic_stringIcNS_11char_traitsIcEENS_9allocatorIcEEE19__move_assign_allocB8ne180100ERS5_NS_17integral_constantIbLb1EEE, symObjAddr: 0x1260, symBinAddr: 0x10000D610, symSize: 0x30 }
  - { offsetInCU: 0x7B7D, offset: 0x27E1A, size: 0x8, addend: 0x0, symName: __ZNSt3__114pointer_traitsIPcE10pointer_toB8ne180100ERc, symObjAddr: 0x1290, symBinAddr: 0x10000D640, symSize: 0xE }
  - { offsetInCU: 0x64, offset: 0x28647, size: 0x8, addend: 0x0, symName: __ZN11MysteryShipC2Ev, symObjAddr: 0x0, symBinAddr: 0x10000D650, symSize: 0x50 }
  - { offsetInCU: 0x8E, offset: 0x28671, size: 0x8, addend: 0x0, symName: __ZN11MysteryShipC1Ev, symObjAddr: 0x50, symBinAddr: 0x10000D6A0, symSize: 0x20 }
  - { offsetInCU: 0xB8, offset: 0x2869B, size: 0x8, addend: 0x0, symName: __ZN11MysteryShipD2Ev, symObjAddr: 0x70, symBinAddr: 0x10000D6C0, symSize: 0x50 }
  - { offsetInCU: 0xE2, offset: 0x286C5, size: 0x8, addend: 0x0, symName: __ZN11MysteryShipD1Ev, symObjAddr: 0xD0, symBinAddr: 0x10000D710, symSize: 0x20 }
  - { offsetInCU: 0x10C, offset: 0x286EF, size: 0x8, addend: 0x0, symName: __ZN11MysteryShip5SpawnEv, symObjAddr: 0xF0, symBinAddr: 0x10000D730, symSize: 0x90 }
  - { offsetInCU: 0x140, offset: 0x28723, size: 0x8, addend: 0x0, symName: __ZN11MysteryShip7getRectEv, symObjAddr: 0x180, symBinAddr: 0x10000D7C0, symSize: 0x80 }
  - { offsetInCU: 0x166, offset: 0x28749, size: 0x8, addend: 0x0, symName: __ZN11MysteryShip6UpdateEv, symObjAddr: 0x200, symBinAddr: 0x10000D840, symSize: 0x90 }
  - { offsetInCU: 0x18C, offset: 0x2876F, size: 0x8, addend: 0x0, symName: __ZN11MysteryShip4DrawEv, symObjAddr: 0x290, symBinAddr: 0x10000D8D0, symSize: 0x6A }
  - { offsetInCU: 0x39, offset: 0x287D3, size: 0x8, addend: 0x0, symName: __ZN8Obstacle4gridE, symObjAddr: 0x3BB08, symBinAddr: 0x100015040, symSize: 0x0 }
  - { offsetInCU: 0x4537, offset: 0x2CCD1, size: 0x8, addend: 0x0, symName: __ZNSt3__112__to_addressB8ne180100IiEEPT_S2_, symObjAddr: 0x7D0, symBinAddr: 0x10000DF90, symSize: 0x10 }
  - { offsetInCU: 0x456C, offset: 0x2CD06, size: 0x8, addend: 0x0, symName: __ZNSt3__122__make_exception_guardB8ne180100INS_6vectorIiNS_9allocatorIiEEE16__destroy_vectorEEENS_28__exception_guard_exceptionsIT_EES7_, symObjAddr: 0xA60, symBinAddr: 0x10000E1B0, symSize: 0x40 }
  - { offsetInCU: 0x45A1, offset: 0x2CD3B, size: 0x8, addend: 0x0, symName: __ZNSt3__119__allocate_at_leastB8ne180100INS_9allocatorIiEEEENS_19__allocation_resultINS_16allocator_traitsIT_E7pointerEEERS5_m, symObjAddr: 0xDF0, symBinAddr: 0x10000E540, symSize: 0x40 }
  - { offsetInCU: 0x45E4, offset: 0x2CD7E, size: 0x8, addend: 0x0, symName: __ZNSt3__130__uninitialized_allocator_copyB8ne180100INS_9allocatorIiEEPKiS4_PiEET2_RT_T0_T1_S6_, symObjAddr: 0x11D0, symBinAddr: 0x10000E6F0, symSize: 0x80 }
  - { offsetInCU: 0x4681, offset: 0x2CE1B, size: 0x8, addend: 0x0, symName: __ZNSt3__114__unwrap_rangeB8ne180100IPKiS2_EENS_4pairIT0_S4_EET_S6_, symObjAddr: 0x12B0, symBinAddr: 0x10000E7D0, symSize: 0x50 }
  - { offsetInCU: 0x46CD, offset: 0x2CE67, size: 0x8, addend: 0x0, symName: __ZNSt3__135__uninitialized_allocator_copy_implB8ne180100INS_9allocatorIiEEKiiiLPv0EEEPT2_RT_PT0_SA_S6_, symObjAddr: 0x1300, symBinAddr: 0x10000E820, symSize: 0x30 }
  - { offsetInCU: 0x474E, offset: 0x2CEE8, size: 0x8, addend: 0x0, symName: __ZNSt3__113__unwrap_iterB8ne180100IPiNS_18__unwrap_iter_implIS1_Lb1EEELi0EEEDTclsrT0_8__unwrapclsr3stdE7declvalIT_EEEES5_, symObjAddr: 0x1330, symBinAddr: 0x10000E850, symSize: 0x20 }
  - { offsetInCU: 0x4792, offset: 0x2CF2C, size: 0x8, addend: 0x0, symName: __ZNSt3__113__rewrap_iterB8ne180100IPiS1_NS_18__unwrap_iter_implIS1_Lb1EEEEET_S4_T0_, symObjAddr: 0x1350, symBinAddr: 0x10000E870, symSize: 0x40 }
  - { offsetInCU: 0x47E7, offset: 0x2CF81, size: 0x8, addend: 0x0, symName: __ZNSt3__19make_pairB8ne180100IPKiS2_EENS_4pairINS_18__unwrap_ref_decayIT_E4typeENS4_IT0_E4typeEEEOS5_OS8_, symObjAddr: 0x1390, symBinAddr: 0x10000E8B0, symSize: 0x30 }
  - { offsetInCU: 0x4836, offset: 0x2CFD0, size: 0x8, addend: 0x0, symName: __ZNSt3__113__unwrap_iterB8ne180100IPKiNS_18__unwrap_iter_implIS2_Lb1EEELi0EEEDTclsrT0_8__unwrapclsr3stdE7declvalIT_EEEES6_, symObjAddr: 0x13C0, symBinAddr: 0x10000E8E0, symSize: 0x20 }
  - { offsetInCU: 0x49A1, offset: 0x2D13B, size: 0x8, addend: 0x0, symName: __ZNSt3__112__to_addressB8ne180100IKiEEPT_S3_, symObjAddr: 0x1460, symBinAddr: 0x10000E980, symSize: 0x10 }
  - { offsetInCU: 0x49D6, offset: 0x2D170, size: 0x8, addend: 0x0, symName: __ZNSt3__14copyB8ne180100IPKiPiEET0_T_S5_S4_, symObjAddr: 0x1470, symBinAddr: 0x10000E990, symSize: 0x40 }
  - { offsetInCU: 0x4A30, offset: 0x2D1CA, size: 0x8, addend: 0x0, symName: __ZNSt3__16__copyB8ne180100INS_17_ClassicAlgPolicyEPKiS3_PiEENS_4pairIT0_T2_EES6_T1_S7_, symObjAddr: 0x14B0, symBinAddr: 0x10000E9D0, symSize: 0x40 }
  - { offsetInCU: 0x4A9C, offset: 0x2D236, size: 0x8, addend: 0x0, symName: __ZNSt3__123__dispatch_copy_or_moveB8ne180100INS_17_ClassicAlgPolicyENS_11__copy_loopIS1_EENS_14__copy_trivialEPKiS6_PiEENS_4pairIT2_T4_EES9_T3_SA_, symObjAddr: 0x14F0, symBinAddr: 0x10000EA10, symSize: 0x40 }
  - { offsetInCU: 0x4B1A, offset: 0x2D2B4, size: 0x8, addend: 0x0, symName: __ZNSt3__121__unwrap_and_dispatchB8ne180100INS_10__overloadINS_11__copy_loopINS_17_ClassicAlgPolicyEEENS_14__copy_trivialEEEPKiS8_PiLi0EEENS_4pairIT0_T2_EESB_T1_SC_, symObjAddr: 0x1530, symBinAddr: 0x10000EA50, symSize: 0xB0 }
  - { offsetInCU: 0x4D2E, offset: 0x2D4C8, size: 0x8, addend: 0x0, symName: __ZNSt3__19make_pairB8ne180100IPKiPiEENS_4pairINS_18__unwrap_ref_decayIT_E4typeENS5_IT0_E4typeEEEOS6_OS9_, symObjAddr: 0x1620, symBinAddr: 0x10000EB40, symSize: 0x30 }
  - { offsetInCU: 0x4D7D, offset: 0x2D517, size: 0x8, addend: 0x0, symName: __ZNSt3__114__rewrap_rangeB8ne180100IPKiS2_EET_S3_T0_, symObjAddr: 0x1650, symBinAddr: 0x10000EB70, symSize: 0x30 }
  - { offsetInCU: 0x4DC9, offset: 0x2D563, size: 0x8, addend: 0x0, symName: __ZNSt3__119__copy_trivial_implB8ne180100IKiiEENS_4pairIPT_PT0_EES4_S4_S6_, symObjAddr: 0x1680, symBinAddr: 0x10000EBA0, symSize: 0x70 }
  - { offsetInCU: 0x4E31, offset: 0x2D5CB, size: 0x8, addend: 0x0, symName: __ZNSt3__119__constexpr_memmoveB8ne180100IiKiLi0EEEPT_S3_PT0_NS_15__element_countE, symObjAddr: 0x16F0, symBinAddr: 0x10000EC10, symSize: 0x50 }
  - { offsetInCU: 0x4E9F, offset: 0x2D639, size: 0x8, addend: 0x0, symName: __ZNSt3__19make_pairB8ne180100IRPKiPiEENS_4pairINS_18__unwrap_ref_decayIT_E4typeENS6_IT0_E4typeEEEOS7_OSA_, symObjAddr: 0x1740, symBinAddr: 0x10000EC60, symSize: 0x30 }
  - { offsetInCU: 0x4EEE, offset: 0x2D688, size: 0x8, addend: 0x0, symName: __ZNSt3__113__rewrap_iterB8ne180100IPKiS2_NS_18__unwrap_iter_implIS2_Lb1EEEEET_S5_T0_, symObjAddr: 0x1830, symBinAddr: 0x10000ED50, symSize: 0x40 }
  - { offsetInCU: 0x4F96, offset: 0x2D730, size: 0x8, addend: 0x0, symName: __ZNSt3__122__make_exception_guardB8ne180100INS_6vectorINS1_IiNS_9allocatorIiEEEENS2_IS4_EEE16__destroy_vectorEEENS_28__exception_guard_exceptionsIT_EES9_, symObjAddr: 0x1AC0, symBinAddr: 0x10000EFE0, symSize: 0x40 }
  - { offsetInCU: 0x4FCB, offset: 0x2D765, size: 0x8, addend: 0x0, symName: __ZNSt3__119__allocate_at_leastB8ne180100INS_9allocatorINS_6vectorIiNS1_IiEEEEEEEENS_19__allocation_resultINS_16allocator_traitsIT_E7pointerEEERS8_m, symObjAddr: 0x1EA0, symBinAddr: 0x10000F3C0, symSize: 0x40 }
  - { offsetInCU: 0x500E, offset: 0x2D7A8, size: 0x8, addend: 0x0, symName: __ZNSt3__130__uninitialized_allocator_copyB8ne180100INS_9allocatorINS_6vectorIiNS1_IiEEEEEEPKS4_S7_PS4_EET2_RT_T0_T1_S9_, symObjAddr: 0x20A0, symBinAddr: 0x10000F5C0, symSize: 0x80 }
  - { offsetInCU: 0x50AB, offset: 0x2D845, size: 0x8, addend: 0x0, symName: __ZNSt3__114__unwrap_rangeB8ne180100IPKNS_6vectorIiNS_9allocatorIiEEEES6_EENS_4pairIT0_S8_EET_SA_, symObjAddr: 0x2180, symBinAddr: 0x10000F6A0, symSize: 0x50 }
  - { offsetInCU: 0x50F7, offset: 0x2D891, size: 0x8, addend: 0x0, symName: __ZNSt3__135__uninitialized_allocator_copy_implB8ne180100INS_9allocatorINS_6vectorIiNS1_IiEEEEEEPKS4_S7_PS4_EET2_RT_T0_T1_S9_, symObjAddr: 0x21D0, symBinAddr: 0x10000F6F0, symSize: 0x100 }
  - { offsetInCU: 0x5195, offset: 0x2D92F, size: 0x8, addend: 0x0, symName: __ZNSt3__113__unwrap_iterB8ne180100IPNS_6vectorIiNS_9allocatorIiEEEENS_18__unwrap_iter_implIS5_Lb1EEELi0EEEDTclsrT0_8__unwrapclsr3stdE7declvalIT_EEEES9_, symObjAddr: 0x22D0, symBinAddr: 0x10000F7F0, symSize: 0x20 }
  - { offsetInCU: 0x51D9, offset: 0x2D973, size: 0x8, addend: 0x0, symName: __ZNSt3__113__rewrap_iterB8ne180100IPNS_6vectorIiNS_9allocatorIiEEEES5_NS_18__unwrap_iter_implIS5_Lb1EEEEET_S8_T0_, symObjAddr: 0x22F0, symBinAddr: 0x10000F810, symSize: 0x40 }
  - { offsetInCU: 0x522E, offset: 0x2D9C8, size: 0x8, addend: 0x0, symName: __ZNSt3__19make_pairB8ne180100IPKNS_6vectorIiNS_9allocatorIiEEEES6_EENS_4pairINS_18__unwrap_ref_decayIT_E4typeENS8_IT0_E4typeEEEOS9_OSC_, symObjAddr: 0x2330, symBinAddr: 0x10000F850, symSize: 0x30 }
  - { offsetInCU: 0x527D, offset: 0x2DA17, size: 0x8, addend: 0x0, symName: __ZNSt3__113__unwrap_iterB8ne180100IPKNS_6vectorIiNS_9allocatorIiEEEENS_18__unwrap_iter_implIS6_Lb1EEELi0EEEDTclsrT0_8__unwrapclsr3stdE7declvalIT_EEEESA_, symObjAddr: 0x2360, symBinAddr: 0x10000F880, symSize: 0x20 }
  - { offsetInCU: 0x53E8, offset: 0x2DB82, size: 0x8, addend: 0x0, symName: __ZNSt3__112__to_addressB8ne180100IKNS_6vectorIiNS_9allocatorIiEEEEEEPT_S7_, symObjAddr: 0x2400, symBinAddr: 0x10000F920, symSize: 0x10 }
  - { offsetInCU: 0x541D, offset: 0x2DBB7, size: 0x8, addend: 0x0, symName: __ZNSt3__122__make_exception_guardB8ne180100INS_29_AllocatorDestroyRangeReverseINS_9allocatorINS_6vectorIiNS2_IiEEEEEEPS5_EEEENS_28__exception_guard_exceptionsIT_EESA_, symObjAddr: 0x2410, symBinAddr: 0x10000F930, symSize: 0x60 }
  - { offsetInCU: 0x5452, offset: 0x2DBEC, size: 0x8, addend: 0x0, symName: __ZNSt3__112__to_addressB8ne180100INS_6vectorIiNS_9allocatorIiEEEEEEPT_S6_, symObjAddr: 0x24E0, symBinAddr: 0x10000FA00, symSize: 0x10 }
  - { offsetInCU: 0x5487, offset: 0x2DC21, size: 0x8, addend: 0x0, symName: __ZNSt3__130__uninitialized_allocator_copyB8ne180100INS_9allocatorIiEEPiS3_S3_EET2_RT_T0_T1_S4_, symObjAddr: 0x28B0, symBinAddr: 0x10000FDD0, symSize: 0x80 }
  - { offsetInCU: 0x5524, offset: 0x2DCBE, size: 0x8, addend: 0x0, symName: __ZNSt3__114__unwrap_rangeB8ne180100IPiS1_EENS_4pairIT0_S3_EET_S5_, symObjAddr: 0x2930, symBinAddr: 0x10000FE50, symSize: 0x50 }
  - { offsetInCU: 0x5570, offset: 0x2DD0A, size: 0x8, addend: 0x0, symName: __ZNSt3__135__uninitialized_allocator_copy_implB8ne180100INS_9allocatorIiEEiiiLPv0EEEPT2_RT_PT0_S9_S5_, symObjAddr: 0x2980, symBinAddr: 0x10000FEA0, symSize: 0x30 }
  - { offsetInCU: 0x55F1, offset: 0x2DD8B, size: 0x8, addend: 0x0, symName: __ZNSt3__19make_pairB8ne180100IPiS1_EENS_4pairINS_18__unwrap_ref_decayIT_E4typeENS3_IT0_E4typeEEEOS4_OS7_, symObjAddr: 0x29B0, symBinAddr: 0x10000FED0, symSize: 0x30 }
  - { offsetInCU: 0x5743, offset: 0x2DEDD, size: 0x8, addend: 0x0, symName: __ZNSt3__14copyB8ne180100IPiS1_EET0_T_S3_S2_, symObjAddr: 0x2A40, symBinAddr: 0x10000FF60, symSize: 0x40 }
  - { offsetInCU: 0x579D, offset: 0x2DF37, size: 0x8, addend: 0x0, symName: __ZNSt3__16__copyB8ne180100INS_17_ClassicAlgPolicyEPiS2_S2_EENS_4pairIT0_T2_EES4_T1_S5_, symObjAddr: 0x2A80, symBinAddr: 0x10000FFA0, symSize: 0x40 }
  - { offsetInCU: 0x5809, offset: 0x2DFA3, size: 0x8, addend: 0x0, symName: __ZNSt3__123__dispatch_copy_or_moveB8ne180100INS_17_ClassicAlgPolicyENS_11__copy_loopIS1_EENS_14__copy_trivialEPiS5_S5_EENS_4pairIT2_T4_EES7_T3_S8_, symObjAddr: 0x2AC0, symBinAddr: 0x10000FFE0, symSize: 0x40 }
  - { offsetInCU: 0x5887, offset: 0x2E021, size: 0x8, addend: 0x0, symName: __ZNSt3__121__unwrap_and_dispatchB8ne180100INS_10__overloadINS_11__copy_loopINS_17_ClassicAlgPolicyEEENS_14__copy_trivialEEEPiS7_S7_Li0EEENS_4pairIT0_T2_EES9_T1_SA_, symObjAddr: 0x2B00, symBinAddr: 0x100010020, symSize: 0xB0 }
  - { offsetInCU: 0x5916, offset: 0x2E0B0, size: 0x8, addend: 0x0, symName: __ZNSt3__114__rewrap_rangeB8ne180100IPiS1_EET_S2_T0_, symObjAddr: 0x2BF0, symBinAddr: 0x100010110, symSize: 0x30 }
  - { offsetInCU: 0x5962, offset: 0x2E0FC, size: 0x8, addend: 0x0, symName: __ZNSt3__119__copy_trivial_implB8ne180100IiiEENS_4pairIPT_PT0_EES3_S3_S5_, symObjAddr: 0x2C20, symBinAddr: 0x100010140, symSize: 0x70 }
  - { offsetInCU: 0x59CA, offset: 0x2E164, size: 0x8, addend: 0x0, symName: __ZNSt3__119__constexpr_memmoveB8ne180100IiiLi0EEEPT_S2_PT0_NS_15__element_countE, symObjAddr: 0x2C90, symBinAddr: 0x1000101B0, symSize: 0x50 }
  - { offsetInCU: 0x5A38, offset: 0x2E1D2, size: 0x8, addend: 0x0, symName: __ZNSt3__19make_pairB8ne180100IRPiS1_EENS_4pairINS_18__unwrap_ref_decayIT_E4typeENS4_IT0_E4typeEEEOS5_OS8_, symObjAddr: 0x2CE0, symBinAddr: 0x100010200, symSize: 0x30 }
  - { offsetInCU: 0x5A87, offset: 0x2E221, size: 0x8, addend: 0x0, symName: __ZNSt3__119__allocator_destroyB8ne180100INS_9allocatorINS_6vectorIiNS1_IiEEEEEENS_16reverse_iteratorIPS4_EES8_EEvRT_T0_T1_, symObjAddr: 0x2E10, symBinAddr: 0x100010330, symSize: 0x70 }
  - { offsetInCU: 0x5AEA, offset: 0x2E284, size: 0x8, addend: 0x0, symName: __ZNSt3__1neB8ne180100IPNS_6vectorIiNS_9allocatorIiEEEES5_EEbRKNS_16reverse_iteratorIT_EERKNS6_IT0_EE, symObjAddr: 0x2EB0, symBinAddr: 0x1000103D0, symSize: 0x40 }
  - { offsetInCU: 0x5B36, offset: 0x2E2D0, size: 0x8, addend: 0x0, symName: __ZNSt3__112__to_addressB8ne180100INS_16reverse_iteratorIPNS_6vectorIiNS_9allocatorIiEEEEEEvEEu7__decayIDTclsr19__to_address_helperIT_EE6__callclsr3stdE7declvalIRKS8_EEEEESA_, symObjAddr: 0x2F20, symBinAddr: 0x100010440, symSize: 0x20 }
  - { offsetInCU: 0x5BE8, offset: 0x2E382, size: 0x8, addend: 0x0, symName: __ZNSt3__142__uninitialized_allocator_move_if_noexceptB8ne180100INS_9allocatorI5BlockEENS_16reverse_iteratorIPS2_EES6_S2_vEET1_RT_T0_SA_S7_, symObjAddr: 0x4160, symBinAddr: 0x100010FD0, symSize: 0x70 }
  - { offsetInCU: 0x5C64, offset: 0x2E3FE, size: 0x8, addend: 0x0, symName: __ZNSt3__14swapB8ne180100IP5BlockEENS_9enable_ifIXaasr21is_move_constructibleIT_EE5valuesr18is_move_assignableIS4_EE5valueEvE4typeERS4_S7_, symObjAddr: 0x4220, symBinAddr: 0x100011090, symSize: 0x40 }
  - { offsetInCU: 0x5CB5, offset: 0x2E44F, size: 0x8, addend: 0x0, symName: __ZNSt3__14moveB8ne180100INS_16reverse_iteratorIP5BlockEES4_EET0_T_S6_S5_, symObjAddr: 0x4270, symBinAddr: 0x1000110D0, symSize: 0x80 }
  - { offsetInCU: 0x5D0F, offset: 0x2E4A9, size: 0x8, addend: 0x0, symName: __ZNSt3__16__moveB8ne180100INS_17_ClassicAlgPolicyENS_16reverse_iteratorIP5BlockEES5_S5_EENS_4pairIT0_T2_EES7_T1_S8_, symObjAddr: 0x42F0, symBinAddr: 0x100011150, symSize: 0x90 }
  - { offsetInCU: 0x5D7B, offset: 0x2E515, size: 0x8, addend: 0x0, symName: __ZNSt3__123__dispatch_copy_or_moveB8ne180100INS_17_ClassicAlgPolicyENS_11__move_loopIS1_EENS_14__move_trivialENS_16reverse_iteratorIP5BlockEES8_S8_EENS_4pairIT2_T4_EESA_T3_SB_, symObjAddr: 0x4380, symBinAddr: 0x1000111E0, symSize: 0x90 }
  - { offsetInCU: 0x5DF9, offset: 0x2E593, size: 0x8, addend: 0x0, symName: __ZNSt3__121__unwrap_and_dispatchB8ne180100INS_10__overloadINS_11__move_loopINS_17_ClassicAlgPolicyEEENS_14__move_trivialEEENS_16reverse_iteratorIP5BlockEESA_SA_Li0EEENS_4pairIT0_T2_EESC_T1_SD_, symObjAddr: 0x4410, symBinAddr: 0x100011270, symSize: 0x210 }
  - { offsetInCU: 0x5E88, offset: 0x2E622, size: 0x8, addend: 0x0, symName: __ZNSt3__114__unwrap_rangeB8ne180100INS_16reverse_iteratorIP5BlockEES4_EENS_4pairIT0_S6_EET_S8_, symObjAddr: 0x4620, symBinAddr: 0x100011480, symSize: 0x90 }
  - { offsetInCU: 0x5FFA, offset: 0x2E794, size: 0x8, addend: 0x0, symName: __ZNSt3__113__unwrap_iterB8ne180100INS_16reverse_iteratorIP5BlockEENS_18__unwrap_iter_implIS4_Lb0EEELi0EEEDTclsrT0_8__unwrapclsr3stdE7declvalIT_EEEES8_, symObjAddr: 0x4750, symBinAddr: 0x1000115B0, symSize: 0x40 }
  - { offsetInCU: 0x603E, offset: 0x2E7D8, size: 0x8, addend: 0x0, symName: __ZNSt3__19make_pairB8ne180100INS_16reverse_iteratorIP5BlockEES4_EENS_4pairINS_18__unwrap_ref_decayIT_E4typeENS6_IT0_E4typeEEEOS7_OSA_, symObjAddr: 0x4790, symBinAddr: 0x1000115F0, symSize: 0x30 }
  - { offsetInCU: 0x608D, offset: 0x2E827, size: 0x8, addend: 0x0, symName: __ZNSt3__114__rewrap_rangeB8ne180100INS_16reverse_iteratorIP5BlockEES4_EET_S5_T0_, symObjAddr: 0x47C0, symBinAddr: 0x100011620, symSize: 0x60 }
  - { offsetInCU: 0x60D9, offset: 0x2E873, size: 0x8, addend: 0x0, symName: __ZNSt3__113__rewrap_iterB8ne180100INS_16reverse_iteratorIP5BlockEES4_NS_18__unwrap_iter_implIS4_Lb0EEEEET_S7_T0_, symObjAddr: 0x4820, symBinAddr: 0x100011680, symSize: 0x70 }
  - { offsetInCU: 0x612E, offset: 0x2E8C8, size: 0x8, addend: 0x0, symName: __ZNSt3__1neB8ne180100IP5BlockS2_EEbRKNS_16reverse_iteratorIT_EERKNS3_IT0_EE, symObjAddr: 0x4890, symBinAddr: 0x1000116F0, symSize: 0x40 }
  - { offsetInCU: 0x67DF, offset: 0x2EF79, size: 0x8, addend: 0x0, symName: __ZNSt3__16vectorI5BlockNS_9allocatorIS1_EEE26__swap_out_circular_bufferERNS_14__split_bufferIS1_RS3_EE, symObjAddr: 0x3C00, symBinAddr: 0x100010C90, symSize: 0x120 }
  - { offsetInCU: 0x86CA, offset: 0x30E64, size: 0x8, addend: 0x0, symName: __ZNSt3__16vectorIiNS_9allocatorIiEEEC1B8ne180100ESt16initializer_listIiE, symObjAddr: 0x0, symBinAddr: 0x10000D940, symSize: 0x30 }
  - { offsetInCU: 0x8704, offset: 0x30E9E, size: 0x8, addend: 0x0, symName: __ZNSt3__16vectorIiNS_9allocatorIiEEED1B8ne180100Ev, symObjAddr: 0x30, symBinAddr: 0x10000D970, symSize: 0x20 }
  - { offsetInCU: 0x872D, offset: 0x30EC7, size: 0x8, addend: 0x0, symName: __ZNSt3__16vectorINS0_IiNS_9allocatorIiEEEENS1_IS3_EEEC1B8ne180100ESt16initializer_listIS3_E, symObjAddr: 0x50, symBinAddr: 0x10000D990, symSize: 0x30 }
  - { offsetInCU: 0x8767, offset: 0x30F01, size: 0x8, addend: 0x0, symName: __ZNSt3__16vectorINS0_IiNS_9allocatorIiEEEENS1_IS3_EEED1B8ne180100Ev, symObjAddr: 0x80, symBinAddr: 0x10000D9C0, symSize: 0x20 }
  - { offsetInCU: 0x8790, offset: 0x30F2A, size: 0x8, addend: 0x0, symName: __ZN8ObstacleC2E7Vector2, symObjAddr: 0xA0, symBinAddr: 0x10000D9E0, symSize: 0x180 }
  - { offsetInCU: 0x8828, offset: 0x30FC2, size: 0x8, addend: 0x0, symName: __ZNSt3__16vectorI5BlockNS_9allocatorIS1_EEEC1B8ne180100Ev, symObjAddr: 0x220, symBinAddr: 0x10000DB60, symSize: 0x20 }
  - { offsetInCU: 0x8852, offset: 0x30FEC, size: 0x8, addend: 0x0, symName: __ZNKSt3__16vectorINS0_IiNS_9allocatorIiEEEENS1_IS3_EEE4sizeB8ne180100Ev, symObjAddr: 0x240, symBinAddr: 0x10000DB80, symSize: 0x30 }
  - { offsetInCU: 0x8876, offset: 0x31010, size: 0x8, addend: 0x0, symName: __ZNSt3__16vectorIiNS_9allocatorIiEEEixB8ne180100Em, symObjAddr: 0x2B0, symBinAddr: 0x10000DBB0, symSize: 0x20 }
  - { offsetInCU: 0x88AC, offset: 0x31046, size: 0x8, addend: 0x0, symName: __ZNSt3__16vectorI5BlockNS_9allocatorIS1_EEE9push_backB8ne180100ERKS1_, symObjAddr: 0x2D0, symBinAddr: 0x10000DBD0, symSize: 0x80 }
  - { offsetInCU: 0x88F1, offset: 0x3108B, size: 0x8, addend: 0x0, symName: __ZN8ObstacleC1E7Vector2, symObjAddr: 0x370, symBinAddr: 0x10000DC50, symSize: 0x30 }
  - { offsetInCU: 0x892A, offset: 0x310C4, size: 0x8, addend: 0x0, symName: __ZN8Obstacle4DrawEv, symObjAddr: 0x3A0, symBinAddr: 0x10000DC80, symSize: 0x80 }
  - { offsetInCU: 0x89A1, offset: 0x3113B, size: 0x8, addend: 0x0, symName: __ZNKSt3__111__wrap_iterIP5BlockEdeB8ne180100Ev, symObjAddr: 0x4B0, symBinAddr: 0x10000DD00, symSize: 0x20 }
  - { offsetInCU: 0x89C5, offset: 0x3115F, size: 0x8, addend: 0x0, symName: __ZNSt3__16vectorIiNS_9allocatorIiEEED2B8ne180100Ev, symObjAddr: 0x550, symBinAddr: 0x10000DD20, symSize: 0x40 }
  - { offsetInCU: 0x89EE, offset: 0x31188, size: 0x8, addend: 0x0, symName: __ZNSt3__16vectorIiNS_9allocatorIiEEE16__destroy_vectorC1B8ne180100ERS3_, symObjAddr: 0x590, symBinAddr: 0x10000DD60, symSize: 0x30 }
  - { offsetInCU: 0x8A27, offset: 0x311C1, size: 0x8, addend: 0x0, symName: __ZNSt3__16vectorIiNS_9allocatorIiEEE16__destroy_vectorclB8ne180100Ev, symObjAddr: 0x5D0, symBinAddr: 0x10000DD90, symSize: 0x80 }
  - { offsetInCU: 0x8A4B, offset: 0x311E5, size: 0x8, addend: 0x0, symName: __ZNSt3__16vectorIiNS_9allocatorIiEEE16__destroy_vectorC2B8ne180100ERS3_, symObjAddr: 0x650, symBinAddr: 0x10000DE10, symSize: 0x20 }
  - { offsetInCU: 0x8A84, offset: 0x3121E, size: 0x8, addend: 0x0, symName: __ZNSt3__16vectorIiNS_9allocatorIiEEE7__clearB8ne180100Ev, symObjAddr: 0x670, symBinAddr: 0x10000DE30, symSize: 0x20 }
  - { offsetInCU: 0x8AA9, offset: 0x31243, size: 0x8, addend: 0x0, symName: __ZNKSt3__16vectorIiNS_9allocatorIiEEE17__annotate_deleteB8ne180100Ev, symObjAddr: 0x690, symBinAddr: 0x10000DE50, symSize: 0x10 }
  - { offsetInCU: 0x8ACE, offset: 0x31268, size: 0x8, addend: 0x0, symName: __ZNSt3__116allocator_traitsINS_9allocatorIiEEE10deallocateB8ne180100ERS2_Pim, symObjAddr: 0x6A0, symBinAddr: 0x10000DE60, symSize: 0x30 }
  - { offsetInCU: 0x8B10, offset: 0x312AA, size: 0x8, addend: 0x0, symName: __ZNSt3__16vectorIiNS_9allocatorIiEEE7__allocB8ne180100Ev, symObjAddr: 0x6D0, symBinAddr: 0x10000DE90, symSize: 0x20 }
  - { offsetInCU: 0x8B35, offset: 0x312CF, size: 0x8, addend: 0x0, symName: __ZNKSt3__16vectorIiNS_9allocatorIiEEE8capacityB8ne180100Ev, symObjAddr: 0x6F0, symBinAddr: 0x10000DEB0, symSize: 0x30 }
  - { offsetInCU: 0x8B5A, offset: 0x312F4, size: 0x8, addend: 0x0, symName: __ZNSt3__16vectorIiNS_9allocatorIiEEE22__base_destruct_at_endB8ne180100EPi, symObjAddr: 0x720, symBinAddr: 0x10000DEE0, symSize: 0x80 }
  - { offsetInCU: 0x8B9D, offset: 0x31337, size: 0x8, addend: 0x0, symName: __ZNSt3__116allocator_traitsINS_9allocatorIiEEE7destroyB8ne180100IivEEvRS2_PT_, symObjAddr: 0x7A0, symBinAddr: 0x10000DF60, symSize: 0x30 }
  - { offsetInCU: 0x8BDA, offset: 0x31374, size: 0x8, addend: 0x0, symName: __ZNSt3__19allocatorIiE7destroyB8ne180100EPi, symObjAddr: 0x7E0, symBinAddr: 0x10000DFA0, symSize: 0x10 }
  - { offsetInCU: 0x8C0D, offset: 0x313A7, size: 0x8, addend: 0x0, symName: __ZNSt3__19allocatorIiE10deallocateB8ne180100EPim, symObjAddr: 0x7F0, symBinAddr: 0x10000DFB0, symSize: 0x40 }
  - { offsetInCU: 0x8C4E, offset: 0x313E8, size: 0x8, addend: 0x0, symName: __ZNSt3__117__compressed_pairIPiNS_9allocatorIiEEE6secondB8ne180100Ev, symObjAddr: 0x8A0, symBinAddr: 0x10000DFF0, symSize: 0x20 }
  - { offsetInCU: 0x8C73, offset: 0x3140D, size: 0x8, addend: 0x0, symName: __ZNSt3__122__compressed_pair_elemINS_9allocatorIiEELi1ELb1EE5__getB8ne180100Ev, symObjAddr: 0x8C0, symBinAddr: 0x10000E010, symSize: 0x10 }
  - { offsetInCU: 0x8C98, offset: 0x31432, size: 0x8, addend: 0x0, symName: __ZNKSt3__16vectorIiNS_9allocatorIiEEE9__end_capB8ne180100Ev, symObjAddr: 0x8D0, symBinAddr: 0x10000E020, symSize: 0x20 }
  - { offsetInCU: 0x8CBD, offset: 0x31457, size: 0x8, addend: 0x0, symName: __ZNKSt3__117__compressed_pairIPiNS_9allocatorIiEEE5firstB8ne180100Ev, symObjAddr: 0x8F0, symBinAddr: 0x10000E040, symSize: 0x20 }
  - { offsetInCU: 0x8CE2, offset: 0x3147C, size: 0x8, addend: 0x0, symName: __ZNKSt3__122__compressed_pair_elemIPiLi0ELb0EE5__getB8ne180100Ev, symObjAddr: 0x910, symBinAddr: 0x10000E060, symSize: 0x10 }
  - { offsetInCU: 0x8D06, offset: 0x314A0, size: 0x8, addend: 0x0, symName: __ZNSt3__16vectorIiNS_9allocatorIiEEEC2B8ne180100ESt16initializer_listIiE, symObjAddr: 0x920, symBinAddr: 0x10000E070, symSize: 0x110 }
  - { offsetInCU: 0x8D61, offset: 0x314FB, size: 0x8, addend: 0x0, symName: __ZNSt3__117__compressed_pairIPiNS_9allocatorIiEEEC1B8ne180100IDnNS_18__default_init_tagEEEOT_OT0_, symObjAddr: 0xA30, symBinAddr: 0x10000E180, symSize: 0x30 }
  - { offsetInCU: 0x8DB9, offset: 0x31553, size: 0x8, addend: 0x0, symName: __ZNKSt16initializer_listIiE4sizeB8ne180100Ev, symObjAddr: 0xAA0, symBinAddr: 0x10000E1F0, symSize: 0x20 }
  - { offsetInCU: 0x8DDE, offset: 0x31578, size: 0x8, addend: 0x0, symName: __ZNSt3__16vectorIiNS_9allocatorIiEEE11__vallocateB8ne180100Em, symObjAddr: 0xAC0, symBinAddr: 0x10000E210, symSize: 0xA0 }
  - { offsetInCU: 0x8E20, offset: 0x315BA, size: 0x8, addend: 0x0, symName: __ZNSt3__16vectorIiNS_9allocatorIiEEE18__construct_at_endIPKiS6_EEvT_T0_m, symObjAddr: 0xB60, symBinAddr: 0x10000E2B0, symSize: 0x90 }
  - { offsetInCU: 0x8E96, offset: 0x31630, size: 0x8, addend: 0x0, symName: __ZNKSt16initializer_listIiE5beginB8ne180100Ev, symObjAddr: 0xBF0, symBinAddr: 0x10000E340, symSize: 0x20 }
  - { offsetInCU: 0x8EBB, offset: 0x31655, size: 0x8, addend: 0x0, symName: __ZNKSt16initializer_listIiE3endB8ne180100Ev, symObjAddr: 0xC10, symBinAddr: 0x10000E360, symSize: 0x20 }
  - { offsetInCU: 0x8EE0, offset: 0x3167A, size: 0x8, addend: 0x0, symName: __ZNSt3__128__exception_guard_exceptionsINS_6vectorIiNS_9allocatorIiEEE16__destroy_vectorEE10__completeB8ne180100Ev, symObjAddr: 0xC30, symBinAddr: 0x10000E380, symSize: 0x20 }
  - { offsetInCU: 0x8F04, offset: 0x3169E, size: 0x8, addend: 0x0, symName: __ZNSt3__128__exception_guard_exceptionsINS_6vectorIiNS_9allocatorIiEEE16__destroy_vectorEED1B8ne180100Ev, symObjAddr: 0xC50, symBinAddr: 0x10000E3A0, symSize: 0x20 }
  - { offsetInCU: 0x8F2D, offset: 0x316C7, size: 0x8, addend: 0x0, symName: __ZNSt3__117__compressed_pairIPiNS_9allocatorIiEEEC2B8ne180100IDnNS_18__default_init_tagEEEOT_OT0_, symObjAddr: 0xC70, symBinAddr: 0x10000E3C0, symSize: 0x40 }
  - { offsetInCU: 0x8F84, offset: 0x3171E, size: 0x8, addend: 0x0, symName: __ZNSt3__122__compressed_pair_elemIPiLi0ELb0EEC2B8ne180100IDnvEEOT_, symObjAddr: 0xCB0, symBinAddr: 0x10000E400, symSize: 0x20 }
  - { offsetInCU: 0x8FC5, offset: 0x3175F, size: 0x8, addend: 0x0, symName: __ZNSt3__122__compressed_pair_elemINS_9allocatorIiEELi1ELb1EEC2B8ne180100ENS_18__default_init_tagE, symObjAddr: 0xCD0, symBinAddr: 0x10000E420, symSize: 0x20 }
  - { offsetInCU: 0x8FF9, offset: 0x31793, size: 0x8, addend: 0x0, symName: __ZNSt3__19allocatorIiEC2B8ne180100Ev, symObjAddr: 0xCF0, symBinAddr: 0x10000E440, symSize: 0x20 }
  - { offsetInCU: 0x9022, offset: 0x317BC, size: 0x8, addend: 0x0, symName: __ZNSt3__116__non_trivial_ifILb1ENS_9allocatorIiEEEC2B8ne180100Ev, symObjAddr: 0xD10, symBinAddr: 0x10000E460, symSize: 0x10 }
  - { offsetInCU: 0x904B, offset: 0x317E5, size: 0x8, addend: 0x0, symName: __ZNSt3__128__exception_guard_exceptionsINS_6vectorIiNS_9allocatorIiEEE16__destroy_vectorEEC1B8ne180100ES5_, symObjAddr: 0xD20, symBinAddr: 0x10000E470, symSize: 0x30 }
  - { offsetInCU: 0x9082, offset: 0x3181C, size: 0x8, addend: 0x0, symName: __ZNSt3__128__exception_guard_exceptionsINS_6vectorIiNS_9allocatorIiEEE16__destroy_vectorEEC2B8ne180100ES5_, symObjAddr: 0xD50, symBinAddr: 0x10000E4A0, symSize: 0x20 }
  - { offsetInCU: 0x90B9, offset: 0x31853, size: 0x8, addend: 0x0, symName: __ZNKSt3__16vectorIiNS_9allocatorIiEEE8max_sizeEv, symObjAddr: 0xD70, symBinAddr: 0x10000E4C0, symSize: 0x60 }
  - { offsetInCU: 0x90E1, offset: 0x3187B, size: 0x8, addend: 0x0, symName: __ZNKSt3__16vectorIiNS_9allocatorIiEEE20__throw_length_errorB8ne180100Ev, symObjAddr: 0xDD0, symBinAddr: 0x10000E520, symSize: 0x20 }
  - { offsetInCU: 0x9106, offset: 0x318A0, size: 0x8, addend: 0x0, symName: __ZNSt3__16vectorIiNS_9allocatorIiEEE9__end_capB8ne180100Ev, symObjAddr: 0xE30, symBinAddr: 0x10000E580, symSize: 0x20 }
  - { offsetInCU: 0x912B, offset: 0x318C5, size: 0x8, addend: 0x0, symName: __ZNKSt3__16vectorIiNS_9allocatorIiEEE14__annotate_newB8ne180100Em, symObjAddr: 0xE50, symBinAddr: 0x10000E5A0, symSize: 0x10 }
  - { offsetInCU: 0x916A, offset: 0x31904, size: 0x8, addend: 0x0, symName: __ZNSt3__116allocator_traitsINS_9allocatorIiEEE8max_sizeB8ne180100IS2_vEEmRKS2_, symObjAddr: 0xE90, symBinAddr: 0x10000E5B0, symSize: 0x20 }
  - { offsetInCU: 0x9198, offset: 0x31932, size: 0x8, addend: 0x0, symName: __ZNKSt3__16vectorIiNS_9allocatorIiEEE7__allocB8ne180100Ev, symObjAddr: 0xEB0, symBinAddr: 0x10000E5D0, symSize: 0x20 }
  - { offsetInCU: 0x91BD, offset: 0x31957, size: 0x8, addend: 0x0, symName: __ZNKSt3__19allocatorIiE8max_sizeB8ne180100Ev, symObjAddr: 0xF60, symBinAddr: 0x10000E5F0, symSize: 0x20 }
  - { offsetInCU: 0x91E2, offset: 0x3197C, size: 0x8, addend: 0x0, symName: __ZNKSt3__117__compressed_pairIPiNS_9allocatorIiEEE6secondB8ne180100Ev, symObjAddr: 0xF80, symBinAddr: 0x10000E610, symSize: 0x20 }
  - { offsetInCU: 0x9207, offset: 0x319A1, size: 0x8, addend: 0x0, symName: __ZNKSt3__122__compressed_pair_elemINS_9allocatorIiEELi1ELb1EE5__getB8ne180100Ev, symObjAddr: 0xFA0, symBinAddr: 0x10000E630, symSize: 0x10 }
  - { offsetInCU: 0x922C, offset: 0x319C6, size: 0x8, addend: 0x0, symName: __ZNSt3__19allocatorIiE8allocateB8ne180100Em, symObjAddr: 0x10A0, symBinAddr: 0x10000E640, symSize: 0x50 }
  - { offsetInCU: 0x925F, offset: 0x319F9, size: 0x8, addend: 0x0, symName: __ZNSt3__117__compressed_pairIPiNS_9allocatorIiEEE5firstB8ne180100Ev, symObjAddr: 0x1170, symBinAddr: 0x10000E690, symSize: 0x20 }
  - { offsetInCU: 0x9284, offset: 0x31A1E, size: 0x8, addend: 0x0, symName: __ZNSt3__122__compressed_pair_elemIPiLi0ELb0EE5__getB8ne180100Ev, symObjAddr: 0x1190, symBinAddr: 0x10000E6B0, symSize: 0x10 }
  - { offsetInCU: 0x92C3, offset: 0x31A5D, size: 0x8, addend: 0x0, symName: __ZNSt3__16vectorIiNS_9allocatorIiEEE21_ConstructTransactionC1B8ne180100ERS3_m, symObjAddr: 0x11A0, symBinAddr: 0x10000E6C0, symSize: 0x30 }
  - { offsetInCU: 0x930A, offset: 0x31AA4, size: 0x8, addend: 0x0, symName: __ZNSt3__16vectorIiNS_9allocatorIiEEE21_ConstructTransactionD1B8ne180100Ev, symObjAddr: 0x1250, symBinAddr: 0x10000E770, symSize: 0x20 }
  - { offsetInCU: 0x9333, offset: 0x31ACD, size: 0x8, addend: 0x0, symName: __ZNSt3__16vectorIiNS_9allocatorIiEEE21_ConstructTransactionC2B8ne180100ERS3_m, symObjAddr: 0x1270, symBinAddr: 0x10000E790, symSize: 0x40 }
  - { offsetInCU: 0x939C, offset: 0x31B36, size: 0x8, addend: 0x0, symName: __ZNSt3__14pairIPKiS2_EC1B8ne180100IS2_S2_Li0EEEOT_OT0_, symObjAddr: 0x13E0, symBinAddr: 0x10000E900, symSize: 0x30 }
  - { offsetInCU: 0x93F9, offset: 0x31B93, size: 0x8, addend: 0x0, symName: __ZNSt3__14pairIPKiS2_EC2B8ne180100IS2_S2_Li0EEEOT_OT0_, symObjAddr: 0x1410, symBinAddr: 0x10000E930, symSize: 0x30 }
  - { offsetInCU: 0x9457, offset: 0x31BF1, size: 0x8, addend: 0x0, symName: __ZNSt3__118__unwrap_iter_implIPKiLb1EE8__unwrapB8ne180100ES2_, symObjAddr: 0x1440, symBinAddr: 0x10000E960, symSize: 0x20 }
  - { offsetInCU: 0x94A0, offset: 0x31C3A, size: 0x8, addend: 0x0, symName: __ZNKSt3__114__copy_trivialclB8ne180100IKiiLi0EEENS_4pairIPT_PT0_EES5_S5_S7_, symObjAddr: 0x15E0, symBinAddr: 0x10000EB00, symSize: 0x40 }
  - { offsetInCU: 0x9512, offset: 0x31CAC, size: 0x8, addend: 0x0, symName: __ZNSt3__14pairIPKiPiEC1B8ne180100IRS2_S3_Li0EEEOT_OT0_, symObjAddr: 0x1770, symBinAddr: 0x10000EC90, symSize: 0x30 }
  - { offsetInCU: 0x956F, offset: 0x31D09, size: 0x8, addend: 0x0, symName: __ZNSt3__14pairIPKiPiEC2B8ne180100IRS2_S3_Li0EEEOT_OT0_, symObjAddr: 0x17A0, symBinAddr: 0x10000ECC0, symSize: 0x30 }
  - { offsetInCU: 0x95CC, offset: 0x31D66, size: 0x8, addend: 0x0, symName: __ZNSt3__14pairIPKiPiEC1B8ne180100IS2_S3_Li0EEEOT_OT0_, symObjAddr: 0x17D0, symBinAddr: 0x10000ECF0, symSize: 0x30 }
  - { offsetInCU: 0x9629, offset: 0x31DC3, size: 0x8, addend: 0x0, symName: __ZNSt3__14pairIPKiPiEC2B8ne180100IS2_S3_Li0EEEOT_OT0_, symObjAddr: 0x1800, symBinAddr: 0x10000ED20, symSize: 0x30 }
  - { offsetInCU: 0x9687, offset: 0x31E21, size: 0x8, addend: 0x0, symName: __ZNSt3__118__unwrap_iter_implIPKiLb1EE8__rewrapB8ne180100ES2_S2_, symObjAddr: 0x1870, symBinAddr: 0x10000ED90, symSize: 0x50 }
  - { offsetInCU: 0x96B8, offset: 0x31E52, size: 0x8, addend: 0x0, symName: __ZNSt3__118__unwrap_iter_implIPiLb1EE8__unwrapB8ne180100ES1_, symObjAddr: 0x18C0, symBinAddr: 0x10000EDE0, symSize: 0x20 }
  - { offsetInCU: 0x96DB, offset: 0x31E75, size: 0x8, addend: 0x0, symName: __ZNSt3__118__unwrap_iter_implIPiLb1EE8__rewrapB8ne180100ES1_S1_, symObjAddr: 0x18E0, symBinAddr: 0x10000EE00, symSize: 0x50 }
  - { offsetInCU: 0x970B, offset: 0x31EA5, size: 0x8, addend: 0x0, symName: __ZNSt3__16vectorIiNS_9allocatorIiEEE21_ConstructTransactionD2B8ne180100Ev, symObjAddr: 0x1930, symBinAddr: 0x10000EE50, symSize: 0x20 }
  - { offsetInCU: 0x9734, offset: 0x31ECE, size: 0x8, addend: 0x0, symName: __ZNSt3__128__exception_guard_exceptionsINS_6vectorIiNS_9allocatorIiEEE16__destroy_vectorEED2B8ne180100Ev, symObjAddr: 0x1950, symBinAddr: 0x10000EE70, symSize: 0x30 }
  - { offsetInCU: 0x975D, offset: 0x31EF7, size: 0x8, addend: 0x0, symName: __ZNSt3__16vectorINS0_IiNS_9allocatorIiEEEENS1_IS3_EEEC2B8ne180100ESt16initializer_listIS3_E, symObjAddr: 0x1980, symBinAddr: 0x10000EEA0, symSize: 0x110 }
  - { offsetInCU: 0x97AC, offset: 0x31F46, size: 0x8, addend: 0x0, symName: __ZNSt3__117__compressed_pairIPNS_6vectorIiNS_9allocatorIiEEEENS2_IS4_EEEC1B8ne180100IDnNS_18__default_init_tagEEEOT_OT0_, symObjAddr: 0x1A90, symBinAddr: 0x10000EFB0, symSize: 0x30 }
  - { offsetInCU: 0x9803, offset: 0x31F9D, size: 0x8, addend: 0x0, symName: __ZNSt3__16vectorINS0_IiNS_9allocatorIiEEEENS1_IS3_EEE16__destroy_vectorC1B8ne180100ERS5_, symObjAddr: 0x1B00, symBinAddr: 0x10000F020, symSize: 0x30 }
  - { offsetInCU: 0x983C, offset: 0x31FD6, size: 0x8, addend: 0x0, symName: __ZNKSt16initializer_listINSt3__16vectorIiNS0_9allocatorIiEEEEE4sizeB8ne180100Ev, symObjAddr: 0x1B30, symBinAddr: 0x10000F050, symSize: 0x20 }
  - { offsetInCU: 0x9861, offset: 0x31FFB, size: 0x8, addend: 0x0, symName: __ZNSt3__16vectorINS0_IiNS_9allocatorIiEEEENS1_IS3_EEE11__vallocateB8ne180100Em, symObjAddr: 0x1B50, symBinAddr: 0x10000F070, symSize: 0xA0 }
  - { offsetInCU: 0x98A3, offset: 0x3203D, size: 0x8, addend: 0x0, symName: __ZNSt3__16vectorINS0_IiNS_9allocatorIiEEEENS1_IS3_EEE18__construct_at_endIPKS3_S8_EEvT_T0_m, symObjAddr: 0x1BF0, symBinAddr: 0x10000F110, symSize: 0x90 }
  - { offsetInCU: 0x9919, offset: 0x320B3, size: 0x8, addend: 0x0, symName: __ZNKSt16initializer_listINSt3__16vectorIiNS0_9allocatorIiEEEEE5beginB8ne180100Ev, symObjAddr: 0x1C80, symBinAddr: 0x10000F1A0, symSize: 0x20 }
  - { offsetInCU: 0x993E, offset: 0x320D8, size: 0x8, addend: 0x0, symName: __ZNKSt16initializer_listINSt3__16vectorIiNS0_9allocatorIiEEEEE3endB8ne180100Ev, symObjAddr: 0x1CA0, symBinAddr: 0x10000F1C0, symSize: 0x20 }
  - { offsetInCU: 0x9963, offset: 0x320FD, size: 0x8, addend: 0x0, symName: __ZNSt3__128__exception_guard_exceptionsINS_6vectorINS1_IiNS_9allocatorIiEEEENS2_IS4_EEE16__destroy_vectorEE10__completeB8ne180100Ev, symObjAddr: 0x1CC0, symBinAddr: 0x10000F1E0, symSize: 0x20 }
  - { offsetInCU: 0x9987, offset: 0x32121, size: 0x8, addend: 0x0, symName: __ZNSt3__128__exception_guard_exceptionsINS_6vectorINS1_IiNS_9allocatorIiEEEENS2_IS4_EEE16__destroy_vectorEED1B8ne180100Ev, symObjAddr: 0x1CE0, symBinAddr: 0x10000F200, symSize: 0x20 }
  - { offsetInCU: 0x99B0, offset: 0x3214A, size: 0x8, addend: 0x0, symName: __ZNSt3__117__compressed_pairIPNS_6vectorIiNS_9allocatorIiEEEENS2_IS4_EEEC2B8ne180100IDnNS_18__default_init_tagEEEOT_OT0_, symObjAddr: 0x1D00, symBinAddr: 0x10000F220, symSize: 0x40 }
  - { offsetInCU: 0x9A07, offset: 0x321A1, size: 0x8, addend: 0x0, symName: __ZNSt3__122__compressed_pair_elemIPNS_6vectorIiNS_9allocatorIiEEEELi0ELb0EEC2B8ne180100IDnvEEOT_, symObjAddr: 0x1D40, symBinAddr: 0x10000F260, symSize: 0x20 }
  - { offsetInCU: 0x9A48, offset: 0x321E2, size: 0x8, addend: 0x0, symName: __ZNSt3__122__compressed_pair_elemINS_9allocatorINS_6vectorIiNS1_IiEEEEEELi1ELb1EEC2B8ne180100ENS_18__default_init_tagE, symObjAddr: 0x1D60, symBinAddr: 0x10000F280, symSize: 0x20 }
  - { offsetInCU: 0x9A7C, offset: 0x32216, size: 0x8, addend: 0x0, symName: __ZNSt3__19allocatorINS_6vectorIiNS0_IiEEEEEC2B8ne180100Ev, symObjAddr: 0x1D80, symBinAddr: 0x10000F2A0, symSize: 0x20 }
  - { offsetInCU: 0x9AA5, offset: 0x3223F, size: 0x8, addend: 0x0, symName: __ZNSt3__116__non_trivial_ifILb1ENS_9allocatorINS_6vectorIiNS1_IiEEEEEEEC2B8ne180100Ev, symObjAddr: 0x1DA0, symBinAddr: 0x10000F2C0, symSize: 0x10 }
  - { offsetInCU: 0x9ACE, offset: 0x32268, size: 0x8, addend: 0x0, symName: __ZNSt3__128__exception_guard_exceptionsINS_6vectorINS1_IiNS_9allocatorIiEEEENS2_IS4_EEE16__destroy_vectorEEC1B8ne180100ES7_, symObjAddr: 0x1DB0, symBinAddr: 0x10000F2D0, symSize: 0x30 }
  - { offsetInCU: 0x9B05, offset: 0x3229F, size: 0x8, addend: 0x0, symName: __ZNSt3__128__exception_guard_exceptionsINS_6vectorINS1_IiNS_9allocatorIiEEEENS2_IS4_EEE16__destroy_vectorEEC2B8ne180100ES7_, symObjAddr: 0x1DE0, symBinAddr: 0x10000F300, symSize: 0x20 }
  - { offsetInCU: 0x9B3C, offset: 0x322D6, size: 0x8, addend: 0x0, symName: __ZNSt3__16vectorINS0_IiNS_9allocatorIiEEEENS1_IS3_EEE16__destroy_vectorC2B8ne180100ERS5_, symObjAddr: 0x1E00, symBinAddr: 0x10000F320, symSize: 0x20 }
  - { offsetInCU: 0x9B74, offset: 0x3230E, size: 0x8, addend: 0x0, symName: __ZNKSt3__16vectorINS0_IiNS_9allocatorIiEEEENS1_IS3_EEE8max_sizeEv, symObjAddr: 0x1E20, symBinAddr: 0x10000F340, symSize: 0x60 }
  - { offsetInCU: 0x9B9C, offset: 0x32336, size: 0x8, addend: 0x0, symName: __ZNKSt3__16vectorINS0_IiNS_9allocatorIiEEEENS1_IS3_EEE20__throw_length_errorB8ne180100Ev, symObjAddr: 0x1E80, symBinAddr: 0x10000F3A0, symSize: 0x20 }
  - { offsetInCU: 0x9BC1, offset: 0x3235B, size: 0x8, addend: 0x0, symName: __ZNSt3__16vectorINS0_IiNS_9allocatorIiEEEENS1_IS3_EEE7__allocB8ne180100Ev, symObjAddr: 0x1EE0, symBinAddr: 0x10000F400, symSize: 0x20 }
  - { offsetInCU: 0x9BE6, offset: 0x32380, size: 0x8, addend: 0x0, symName: __ZNSt3__16vectorINS0_IiNS_9allocatorIiEEEENS1_IS3_EEE9__end_capB8ne180100Ev, symObjAddr: 0x1F00, symBinAddr: 0x10000F420, symSize: 0x20 }
  - { offsetInCU: 0x9C0B, offset: 0x323A5, size: 0x8, addend: 0x0, symName: __ZNKSt3__16vectorINS0_IiNS_9allocatorIiEEEENS1_IS3_EEE14__annotate_newB8ne180100Em, symObjAddr: 0x1F20, symBinAddr: 0x10000F440, symSize: 0x10 }
  - { offsetInCU: 0x9C4A, offset: 0x323E4, size: 0x8, addend: 0x0, symName: __ZNSt3__116allocator_traitsINS_9allocatorINS_6vectorIiNS1_IiEEEEEEE8max_sizeB8ne180100IS5_vEEmRKS5_, symObjAddr: 0x1F30, symBinAddr: 0x10000F450, symSize: 0x20 }
  - { offsetInCU: 0x9C78, offset: 0x32412, size: 0x8, addend: 0x0, symName: __ZNKSt3__16vectorINS0_IiNS_9allocatorIiEEEENS1_IS3_EEE7__allocB8ne180100Ev, symObjAddr: 0x1F50, symBinAddr: 0x10000F470, symSize: 0x20 }
  - { offsetInCU: 0x9C9D, offset: 0x32437, size: 0x8, addend: 0x0, symName: __ZNKSt3__19allocatorINS_6vectorIiNS0_IiEEEEE8max_sizeB8ne180100Ev, symObjAddr: 0x1F70, symBinAddr: 0x10000F490, symSize: 0x20 }
  - { offsetInCU: 0x9CC2, offset: 0x3245C, size: 0x8, addend: 0x0, symName: __ZNKSt3__117__compressed_pairIPNS_6vectorIiNS_9allocatorIiEEEENS2_IS4_EEE6secondB8ne180100Ev, symObjAddr: 0x1F90, symBinAddr: 0x10000F4B0, symSize: 0x20 }
  - { offsetInCU: 0x9CE7, offset: 0x32481, size: 0x8, addend: 0x0, symName: __ZNKSt3__122__compressed_pair_elemINS_9allocatorINS_6vectorIiNS1_IiEEEEEELi1ELb1EE5__getB8ne180100Ev, symObjAddr: 0x1FB0, symBinAddr: 0x10000F4D0, symSize: 0x10 }
  - { offsetInCU: 0x9D0C, offset: 0x324A6, size: 0x8, addend: 0x0, symName: __ZNSt3__19allocatorINS_6vectorIiNS0_IiEEEEE8allocateB8ne180100Em, symObjAddr: 0x1FC0, symBinAddr: 0x10000F4E0, symSize: 0x50 }
  - { offsetInCU: 0x9D3F, offset: 0x324D9, size: 0x8, addend: 0x0, symName: __ZNSt3__117__compressed_pairIPNS_6vectorIiNS_9allocatorIiEEEENS2_IS4_EEE6secondB8ne180100Ev, symObjAddr: 0x2010, symBinAddr: 0x10000F530, symSize: 0x20 }
  - { offsetInCU: 0x9D64, offset: 0x324FE, size: 0x8, addend: 0x0, symName: __ZNSt3__122__compressed_pair_elemINS_9allocatorINS_6vectorIiNS1_IiEEEEEELi1ELb1EE5__getB8ne180100Ev, symObjAddr: 0x2030, symBinAddr: 0x10000F550, symSize: 0x10 }
  - { offsetInCU: 0x9D89, offset: 0x32523, size: 0x8, addend: 0x0, symName: __ZNSt3__117__compressed_pairIPNS_6vectorIiNS_9allocatorIiEEEENS2_IS4_EEE5firstB8ne180100Ev, symObjAddr: 0x2040, symBinAddr: 0x10000F560, symSize: 0x20 }
  - { offsetInCU: 0x9DAE, offset: 0x32548, size: 0x8, addend: 0x0, symName: __ZNSt3__122__compressed_pair_elemIPNS_6vectorIiNS_9allocatorIiEEEELi0ELb0EE5__getB8ne180100Ev, symObjAddr: 0x2060, symBinAddr: 0x10000F580, symSize: 0x10 }
  - { offsetInCU: 0x9DED, offset: 0x32587, size: 0x8, addend: 0x0, symName: __ZNSt3__16vectorINS0_IiNS_9allocatorIiEEEENS1_IS3_EEE21_ConstructTransactionC1B8ne180100ERS5_m, symObjAddr: 0x2070, symBinAddr: 0x10000F590, symSize: 0x30 }
  - { offsetInCU: 0x9E34, offset: 0x325CE, size: 0x8, addend: 0x0, symName: __ZNSt3__16vectorINS0_IiNS_9allocatorIiEEEENS1_IS3_EEE21_ConstructTransactionD1B8ne180100Ev, symObjAddr: 0x2120, symBinAddr: 0x10000F640, symSize: 0x20 }
  - { offsetInCU: 0x9E5D, offset: 0x325F7, size: 0x8, addend: 0x0, symName: __ZNSt3__16vectorINS0_IiNS_9allocatorIiEEEENS1_IS3_EEE21_ConstructTransactionC2B8ne180100ERS5_m, symObjAddr: 0x2140, symBinAddr: 0x10000F660, symSize: 0x40 }
  - { offsetInCU: 0x9EC6, offset: 0x32660, size: 0x8, addend: 0x0, symName: __ZNSt3__14pairIPKNS_6vectorIiNS_9allocatorIiEEEES6_EC1B8ne180100IS6_S6_Li0EEEOT_OT0_, symObjAddr: 0x2380, symBinAddr: 0x10000F8A0, symSize: 0x30 }
  - { offsetInCU: 0x9F23, offset: 0x326BD, size: 0x8, addend: 0x0, symName: __ZNSt3__14pairIPKNS_6vectorIiNS_9allocatorIiEEEES6_EC2B8ne180100IS6_S6_Li0EEEOT_OT0_, symObjAddr: 0x23B0, symBinAddr: 0x10000F8D0, symSize: 0x30 }
  - { offsetInCU: 0x9F81, offset: 0x3271B, size: 0x8, addend: 0x0, symName: __ZNSt3__118__unwrap_iter_implIPKNS_6vectorIiNS_9allocatorIiEEEELb1EE8__unwrapB8ne180100ES6_, symObjAddr: 0x23E0, symBinAddr: 0x10000F900, symSize: 0x20 }
  - { offsetInCU: 0x9FA3, offset: 0x3273D, size: 0x8, addend: 0x0, symName: __ZNSt3__129_AllocatorDestroyRangeReverseINS_9allocatorINS_6vectorIiNS1_IiEEEEEEPS4_EC1B8ne180100ERS5_RS6_S9_, symObjAddr: 0x2470, symBinAddr: 0x10000F990, symSize: 0x40 }
  - { offsetInCU: 0x9FFA, offset: 0x32794, size: 0x8, addend: 0x0, symName: __ZNSt3__116allocator_traitsINS_9allocatorINS_6vectorIiNS1_IiEEEEEEE9constructB8ne180100IS4_JRKS4_EvEEvRS5_PT_DpOT0_, symObjAddr: 0x24B0, symBinAddr: 0x10000F9D0, symSize: 0x30 }
  - { offsetInCU: 0xA051, offset: 0x327EB, size: 0x8, addend: 0x0, symName: __ZNSt3__128__exception_guard_exceptionsINS_29_AllocatorDestroyRangeReverseINS_9allocatorINS_6vectorIiNS2_IiEEEEEEPS5_EEE10__completeB8ne180100Ev, symObjAddr: 0x24F0, symBinAddr: 0x10000FA10, symSize: 0x20 }
  - { offsetInCU: 0xA075, offset: 0x3280F, size: 0x8, addend: 0x0, symName: __ZNSt3__128__exception_guard_exceptionsINS_29_AllocatorDestroyRangeReverseINS_9allocatorINS_6vectorIiNS2_IiEEEEEEPS5_EEED1B8ne180100Ev, symObjAddr: 0x2510, symBinAddr: 0x10000FA30, symSize: 0x20 }
  - { offsetInCU: 0xA09E, offset: 0x32838, size: 0x8, addend: 0x0, symName: __ZNSt3__128__exception_guard_exceptionsINS_29_AllocatorDestroyRangeReverseINS_9allocatorINS_6vectorIiNS2_IiEEEEEEPS5_EEEC1B8ne180100ES8_, symObjAddr: 0x2530, symBinAddr: 0x10000FA50, symSize: 0x40 }
  - { offsetInCU: 0xA0D5, offset: 0x3286F, size: 0x8, addend: 0x0, symName: __ZNSt3__128__exception_guard_exceptionsINS_29_AllocatorDestroyRangeReverseINS_9allocatorINS_6vectorIiNS2_IiEEEEEEPS5_EEEC2B8ne180100ES8_, symObjAddr: 0x2570, symBinAddr: 0x10000FA90, symSize: 0x30 }
  - { offsetInCU: 0xA10C, offset: 0x328A6, size: 0x8, addend: 0x0, symName: __ZNSt3__129_AllocatorDestroyRangeReverseINS_9allocatorINS_6vectorIiNS1_IiEEEEEEPS4_EC2B8ne180100ERS5_RS6_S9_, symObjAddr: 0x25A0, symBinAddr: 0x10000FAC0, symSize: 0x40 }
  - { offsetInCU: 0xA163, offset: 0x328FD, size: 0x8, addend: 0x0, symName: __ZNSt3__19allocatorINS_6vectorIiNS0_IiEEEEE9constructB8ne180100IS3_JRKS3_EEEvPT_DpOT0_, symObjAddr: 0x25E0, symBinAddr: 0x10000FB00, symSize: 0x30 }
  - { offsetInCU: 0xA1B7, offset: 0x32951, size: 0x8, addend: 0x0, symName: __ZNSt3__16vectorIiNS_9allocatorIiEEEC1ERKS3_, symObjAddr: 0x2610, symBinAddr: 0x10000FB30, symSize: 0x30 }
  - { offsetInCU: 0xA1F1, offset: 0x3298B, size: 0x8, addend: 0x0, symName: __ZNSt3__16vectorIiNS_9allocatorIiEEEC2ERKS3_, symObjAddr: 0x2640, symBinAddr: 0x10000FB60, symSize: 0xA0 }
  - { offsetInCU: 0xA22C, offset: 0x329C6, size: 0x8, addend: 0x0, symName: __ZNSt3__116allocator_traitsINS_9allocatorIiEEE37select_on_container_copy_constructionB8ne180100IS2_vvEES2_RKS2_, symObjAddr: 0x26E0, symBinAddr: 0x10000FC00, symSize: 0x10 }
  - { offsetInCU: 0xA260, offset: 0x329FA, size: 0x8, addend: 0x0, symName: __ZNSt3__117__compressed_pairIPiNS_9allocatorIiEEEC1B8ne180100IDnS3_EEOT_OT0_, symObjAddr: 0x26F0, symBinAddr: 0x10000FC10, symSize: 0x30 }
  - { offsetInCU: 0xA2B8, offset: 0x32A52, size: 0x8, addend: 0x0, symName: __ZNSt3__16vectorIiNS_9allocatorIiEEE16__init_with_sizeB8ne180100IPiS5_EEvT_T0_m, symObjAddr: 0x2720, symBinAddr: 0x10000FC40, symSize: 0xB0 }
  - { offsetInCU: 0xA32A, offset: 0x32AC4, size: 0x8, addend: 0x0, symName: __ZNSt3__117__compressed_pairIPiNS_9allocatorIiEEEC2B8ne180100IDnS3_EEOT_OT0_, symObjAddr: 0x27D0, symBinAddr: 0x10000FCF0, symSize: 0x40 }
  - { offsetInCU: 0xA381, offset: 0x32B1B, size: 0x8, addend: 0x0, symName: __ZNSt3__122__compressed_pair_elemINS_9allocatorIiEELi1ELb1EEC2B8ne180100IS2_vEEOT_, symObjAddr: 0x2810, symBinAddr: 0x10000FD30, symSize: 0x10 }
  - { offsetInCU: 0xA3C2, offset: 0x32B5C, size: 0x8, addend: 0x0, symName: __ZNSt3__16vectorIiNS_9allocatorIiEEE18__construct_at_endIPiS5_EEvT_T0_m, symObjAddr: 0x2820, symBinAddr: 0x10000FD40, symSize: 0x90 }
  - { offsetInCU: 0xA453, offset: 0x32BED, size: 0x8, addend: 0x0, symName: __ZNSt3__14pairIPiS1_EC1B8ne180100IS1_S1_Li0EEEOT_OT0_, symObjAddr: 0x29E0, symBinAddr: 0x10000FF00, symSize: 0x30 }
  - { offsetInCU: 0xA4B0, offset: 0x32C4A, size: 0x8, addend: 0x0, symName: __ZNSt3__14pairIPiS1_EC2B8ne180100IS1_S1_Li0EEEOT_OT0_, symObjAddr: 0x2A10, symBinAddr: 0x10000FF30, symSize: 0x30 }
  - { offsetInCU: 0xA50E, offset: 0x32CA8, size: 0x8, addend: 0x0, symName: __ZNKSt3__114__copy_trivialclB8ne180100IiiLi0EEENS_4pairIPT_PT0_EES4_S4_S6_, symObjAddr: 0x2BB0, symBinAddr: 0x1000100D0, symSize: 0x40 }
  - { offsetInCU: 0xA574, offset: 0x32D0E, size: 0x8, addend: 0x0, symName: __ZNSt3__14pairIPiS1_EC1B8ne180100IRS1_S1_Li0EEEOT_OT0_, symObjAddr: 0x2D10, symBinAddr: 0x100010230, symSize: 0x30 }
  - { offsetInCU: 0xA5D1, offset: 0x32D6B, size: 0x8, addend: 0x0, symName: __ZNSt3__14pairIPiS1_EC2B8ne180100IRS1_S1_Li0EEEOT_OT0_, symObjAddr: 0x2D40, symBinAddr: 0x100010260, symSize: 0x30 }
  - { offsetInCU: 0xA62E, offset: 0x32DC8, size: 0x8, addend: 0x0, symName: __ZNSt3__128__exception_guard_exceptionsINS_29_AllocatorDestroyRangeReverseINS_9allocatorINS_6vectorIiNS2_IiEEEEEEPS5_EEED2B8ne180100Ev, symObjAddr: 0x2D70, symBinAddr: 0x100010290, symSize: 0x40 }
  - { offsetInCU: 0xA658, offset: 0x32DF2, size: 0x8, addend: 0x0, symName: __ZNKSt3__129_AllocatorDestroyRangeReverseINS_9allocatorINS_6vectorIiNS1_IiEEEEEEPS4_EclB8ne180100Ev, symObjAddr: 0x2DB0, symBinAddr: 0x1000102D0, symSize: 0x60 }
  - { offsetInCU: 0xA67C, offset: 0x32E16, size: 0x8, addend: 0x0, symName: __ZNSt3__116reverse_iteratorIPNS_6vectorIiNS_9allocatorIiEEEEEC1B8ne180100ES5_, symObjAddr: 0x2E80, symBinAddr: 0x1000103A0, symSize: 0x30 }
  - { offsetInCU: 0xA6B4, offset: 0x32E4E, size: 0x8, addend: 0x0, symName: __ZNSt3__116allocator_traitsINS_9allocatorINS_6vectorIiNS1_IiEEEEEEE7destroyB8ne180100IS4_vEEvRS5_PT_, symObjAddr: 0x2EF0, symBinAddr: 0x100010410, symSize: 0x30 }
  - { offsetInCU: 0xA6F1, offset: 0x32E8B, size: 0x8, addend: 0x0, symName: __ZNSt3__116reverse_iteratorIPNS_6vectorIiNS_9allocatorIiEEEEEppB8ne180100Ev, symObjAddr: 0x2F40, symBinAddr: 0x100010460, symSize: 0x20 }
  - { offsetInCU: 0xA716, offset: 0x32EB0, size: 0x8, addend: 0x0, symName: __ZNKSt3__116reverse_iteratorIPNS_6vectorIiNS_9allocatorIiEEEEE4baseB8ne180100Ev, symObjAddr: 0x2F60, symBinAddr: 0x100010480, symSize: 0x20 }
  - { offsetInCU: 0xA73B, offset: 0x32ED5, size: 0x8, addend: 0x0, symName: __ZNSt3__19allocatorINS_6vectorIiNS0_IiEEEEE7destroyB8ne180100EPS3_, symObjAddr: 0x2F80, symBinAddr: 0x1000104A0, symSize: 0x20 }
  - { offsetInCU: 0xA774, offset: 0x32F0E, size: 0x8, addend: 0x0, symName: __ZNSt3__119__to_address_helperINS_16reverse_iteratorIPNS_6vectorIiNS_9allocatorIiEEEEEEvE6__callB8ne180100ERKS7_, symObjAddr: 0x2FA0, symBinAddr: 0x1000104C0, symSize: 0x40 }
  - { offsetInCU: 0xA797, offset: 0x32F31, size: 0x8, addend: 0x0, symName: __ZNKSt3__116reverse_iteratorIPNS_6vectorIiNS_9allocatorIiEEEEEptB8ne180100Ev, symObjAddr: 0x2FE0, symBinAddr: 0x100010500, symSize: 0x20 }
  - { offsetInCU: 0xA7BC, offset: 0x32F56, size: 0x8, addend: 0x0, symName: __ZNKSt3__116reverse_iteratorIPNS_6vectorIiNS_9allocatorIiEEEEEdeB8ne180100Ev, symObjAddr: 0x3000, symBinAddr: 0x100010520, symSize: 0x30 }
  - { offsetInCU: 0xA7EE, offset: 0x32F88, size: 0x8, addend: 0x0, symName: __ZNSt3__116reverse_iteratorIPNS_6vectorIiNS_9allocatorIiEEEEEC2B8ne180100ES5_, symObjAddr: 0x3030, symBinAddr: 0x100010550, symSize: 0x30 }
  - { offsetInCU: 0xA826, offset: 0x32FC0, size: 0x8, addend: 0x0, symName: __ZNSt3__118__unwrap_iter_implIPNS_6vectorIiNS_9allocatorIiEEEELb1EE8__unwrapB8ne180100ES5_, symObjAddr: 0x3060, symBinAddr: 0x100010580, symSize: 0x20 }
  - { offsetInCU: 0xA849, offset: 0x32FE3, size: 0x8, addend: 0x0, symName: __ZNSt3__118__unwrap_iter_implIPNS_6vectorIiNS_9allocatorIiEEEELb1EE8__rewrapB8ne180100ES5_S5_, symObjAddr: 0x3080, symBinAddr: 0x1000105A0, symSize: 0x60 }
  - { offsetInCU: 0xA879, offset: 0x33013, size: 0x8, addend: 0x0, symName: __ZNSt3__16vectorINS0_IiNS_9allocatorIiEEEENS1_IS3_EEE21_ConstructTransactionD2B8ne180100Ev, symObjAddr: 0x30E0, symBinAddr: 0x100010600, symSize: 0x20 }
  - { offsetInCU: 0xA8A2, offset: 0x3303C, size: 0x8, addend: 0x0, symName: __ZNSt3__128__exception_guard_exceptionsINS_6vectorINS1_IiNS_9allocatorIiEEEENS2_IS4_EEE16__destroy_vectorEED2B8ne180100Ev, symObjAddr: 0x3100, symBinAddr: 0x100010620, symSize: 0x40 }
  - { offsetInCU: 0xA8CC, offset: 0x33066, size: 0x8, addend: 0x0, symName: __ZNSt3__16vectorINS0_IiNS_9allocatorIiEEEENS1_IS3_EEE16__destroy_vectorclB8ne180100Ev, symObjAddr: 0x3140, symBinAddr: 0x100010660, symSize: 0x80 }
  - { offsetInCU: 0xA8F1, offset: 0x3308B, size: 0x8, addend: 0x0, symName: __ZNSt3__16vectorINS0_IiNS_9allocatorIiEEEENS1_IS3_EEE7__clearB8ne180100Ev, symObjAddr: 0x31C0, symBinAddr: 0x1000106E0, symSize: 0x20 }
  - { offsetInCU: 0xA916, offset: 0x330B0, size: 0x8, addend: 0x0, symName: __ZNKSt3__16vectorINS0_IiNS_9allocatorIiEEEENS1_IS3_EEE17__annotate_deleteB8ne180100Ev, symObjAddr: 0x31E0, symBinAddr: 0x100010700, symSize: 0x10 }
  - { offsetInCU: 0xA93B, offset: 0x330D5, size: 0x8, addend: 0x0, symName: __ZNSt3__116allocator_traitsINS_9allocatorINS_6vectorIiNS1_IiEEEEEEE10deallocateB8ne180100ERS5_PS4_m, symObjAddr: 0x31F0, symBinAddr: 0x100010710, symSize: 0x30 }
  - { offsetInCU: 0xA97D, offset: 0x33117, size: 0x8, addend: 0x0, symName: __ZNKSt3__16vectorINS0_IiNS_9allocatorIiEEEENS1_IS3_EEE8capacityB8ne180100Ev, symObjAddr: 0x3220, symBinAddr: 0x100010740, symSize: 0x40 }
  - { offsetInCU: 0xA9A2, offset: 0x3313C, size: 0x8, addend: 0x0, symName: __ZNSt3__16vectorINS0_IiNS_9allocatorIiEEEENS1_IS3_EEE22__base_destruct_at_endB8ne180100EPS3_, symObjAddr: 0x3260, symBinAddr: 0x100010780, symSize: 0x80 }
  - { offsetInCU: 0xA9E5, offset: 0x3317F, size: 0x8, addend: 0x0, symName: __ZNSt3__19allocatorINS_6vectorIiNS0_IiEEEEE10deallocateB8ne180100EPS3_m, symObjAddr: 0x32E0, symBinAddr: 0x100010800, symSize: 0x50 }
  - { offsetInCU: 0xAA26, offset: 0x331C0, size: 0x8, addend: 0x0, symName: __ZNKSt3__16vectorINS0_IiNS_9allocatorIiEEEENS1_IS3_EEE9__end_capB8ne180100Ev, symObjAddr: 0x3330, symBinAddr: 0x100010850, symSize: 0x20 }
  - { offsetInCU: 0xAA4B, offset: 0x331E5, size: 0x8, addend: 0x0, symName: __ZNKSt3__117__compressed_pairIPNS_6vectorIiNS_9allocatorIiEEEENS2_IS4_EEE5firstB8ne180100Ev, symObjAddr: 0x3350, symBinAddr: 0x100010870, symSize: 0x20 }
  - { offsetInCU: 0xAA70, offset: 0x3320A, size: 0x8, addend: 0x0, symName: __ZNKSt3__122__compressed_pair_elemIPNS_6vectorIiNS_9allocatorIiEEEELi0ELb0EE5__getB8ne180100Ev, symObjAddr: 0x3370, symBinAddr: 0x100010890, symSize: 0x10 }
  - { offsetInCU: 0xAA94, offset: 0x3322E, size: 0x8, addend: 0x0, symName: __ZNSt3__16vectorINS0_IiNS_9allocatorIiEEEENS1_IS3_EEED2B8ne180100Ev, symObjAddr: 0x3380, symBinAddr: 0x1000108A0, symSize: 0x40 }
  - { offsetInCU: 0xAABD, offset: 0x33257, size: 0x8, addend: 0x0, symName: __ZNSt3__16vectorI5BlockNS_9allocatorIS1_EEEC2B8ne180100Ev, symObjAddr: 0x33C0, symBinAddr: 0x1000108E0, symSize: 0x50 }
  - { offsetInCU: 0xAAE6, offset: 0x33280, size: 0x8, addend: 0x0, symName: __ZNSt3__117__compressed_pairIP5BlockNS_9allocatorIS1_EEEC1B8ne180100IDnNS_18__default_init_tagEEEOT_OT0_, symObjAddr: 0x3410, symBinAddr: 0x100010930, symSize: 0x30 }
  - { offsetInCU: 0xAB3D, offset: 0x332D7, size: 0x8, addend: 0x0, symName: __ZNSt3__117__compressed_pairIP5BlockNS_9allocatorIS1_EEEC2B8ne180100IDnNS_18__default_init_tagEEEOT_OT0_, symObjAddr: 0x3440, symBinAddr: 0x100010960, symSize: 0x40 }
  - { offsetInCU: 0xAB94, offset: 0x3332E, size: 0x8, addend: 0x0, symName: __ZNSt3__122__compressed_pair_elemINS_9allocatorI5BlockEELi1ELb1EEC2B8ne180100ENS_18__default_init_tagE, symObjAddr: 0x34A0, symBinAddr: 0x1000109A0, symSize: 0x20 }
  - { offsetInCU: 0xABC8, offset: 0x33362, size: 0x8, addend: 0x0, symName: __ZNSt3__19allocatorI5BlockEC2B8ne180100Ev, symObjAddr: 0x34C0, symBinAddr: 0x1000109C0, symSize: 0x20 }
  - { offsetInCU: 0xABF1, offset: 0x3338B, size: 0x8, addend: 0x0, symName: __ZNSt3__116__non_trivial_ifILb1ENS_9allocatorI5BlockEEEC2B8ne180100Ev, symObjAddr: 0x34E0, symBinAddr: 0x1000109E0, symSize: 0x10 }
  - { offsetInCU: 0xAC1B, offset: 0x333B5, size: 0x8, addend: 0x0, symName: __ZNSt3__16vectorI5BlockNS_9allocatorIS1_EEE22__construct_one_at_endB8ne180100IJRKS1_EEEvDpOT_, symObjAddr: 0x3860, symBinAddr: 0x1000109F0, symSize: 0x90 }
  - { offsetInCU: 0xAC68, offset: 0x33402, size: 0x8, addend: 0x0, symName: __ZNSt3__16vectorI5BlockNS_9allocatorIS1_EEE21__push_back_slow_pathIRKS1_EEPS1_OT_, symObjAddr: 0x38F0, symBinAddr: 0x100010A80, symSize: 0xE0 }
  - { offsetInCU: 0xACE1, offset: 0x3347B, size: 0x8, addend: 0x0, symName: __ZNSt3__116allocator_traitsINS_9allocatorI5BlockEEE9constructB8ne180100IS2_JRKS2_EvEEvRS3_PT_DpOT0_, symObjAddr: 0x3A30, symBinAddr: 0x100010B60, symSize: 0x30 }
  - { offsetInCU: 0xAD38, offset: 0x334D2, size: 0x8, addend: 0x0, symName: __ZNSt3__19allocatorI5BlockE9constructB8ne180100IS1_JRKS1_EEEvPT_DpOT0_, symObjAddr: 0x3AC0, symBinAddr: 0x100010B90, symSize: 0x20 }
  - { offsetInCU: 0xAD8C, offset: 0x33526, size: 0x8, addend: 0x0, symName: __ZNKSt3__16vectorI5BlockNS_9allocatorIS1_EEE11__recommendB8ne180100Em, symObjAddr: 0x3B00, symBinAddr: 0x100010BB0, symSize: 0xA0 }
  - { offsetInCU: 0xADE0, offset: 0x3357A, size: 0x8, addend: 0x0, symName: __ZNSt3__114__split_bufferI5BlockRNS_9allocatorIS1_EEEC1EmmS4_, symObjAddr: 0x3BC0, symBinAddr: 0x100010C50, symSize: 0x40 }
  - { offsetInCU: 0xAE35, offset: 0x335CF, size: 0x8, addend: 0x0, symName: __ZNSt3__114__split_bufferI5BlockRNS_9allocatorIS1_EEED1Ev, symObjAddr: 0x3D20, symBinAddr: 0x100010DB0, symSize: 0x20 }
  - { offsetInCU: 0xAE6B, offset: 0x33605, size: 0x8, addend: 0x0, symName: __ZNSt3__114__split_bufferI5BlockRNS_9allocatorIS1_EEEC2EmmS4_, symObjAddr: 0x3ED0, symBinAddr: 0x100010DD0, symSize: 0xD0 }
  - { offsetInCU: 0xAEDD, offset: 0x33677, size: 0x8, addend: 0x0, symName: __ZNSt3__117__compressed_pairIP5BlockRNS_9allocatorIS1_EEEC1B8ne180100IDnS5_EEOT_OT0_, symObjAddr: 0x3FA0, symBinAddr: 0x100010EA0, symSize: 0x30 }
  - { offsetInCU: 0xAF35, offset: 0x336CF, size: 0x8, addend: 0x0, symName: __ZNSt3__114__split_bufferI5BlockRNS_9allocatorIS1_EEE7__allocB8ne180100Ev, symObjAddr: 0x4010, symBinAddr: 0x100010ED0, symSize: 0x20 }
  - { offsetInCU: 0xAF5A, offset: 0x336F4, size: 0x8, addend: 0x0, symName: __ZNSt3__114__split_bufferI5BlockRNS_9allocatorIS1_EEE9__end_capB8ne180100Ev, symObjAddr: 0x4030, symBinAddr: 0x100010EF0, symSize: 0x20 }
  - { offsetInCU: 0xAF7E, offset: 0x33718, size: 0x8, addend: 0x0, symName: __ZNSt3__117__compressed_pairIP5BlockRNS_9allocatorIS1_EEEC2B8ne180100IDnS5_EEOT_OT0_, symObjAddr: 0x4050, symBinAddr: 0x100010F10, symSize: 0x40 }
  - { offsetInCU: 0xAFD5, offset: 0x3376F, size: 0x8, addend: 0x0, symName: __ZNSt3__122__compressed_pair_elemIRNS_9allocatorI5BlockEELi1ELb0EEC2B8ne180100IS4_vEEOT_, symObjAddr: 0x4090, symBinAddr: 0x100010F50, symSize: 0x20 }
  - { offsetInCU: 0xB017, offset: 0x337B1, size: 0x8, addend: 0x0, symName: __ZNSt3__117__compressed_pairIP5BlockRNS_9allocatorIS1_EEE6secondB8ne180100Ev, symObjAddr: 0x4100, symBinAddr: 0x100010F70, symSize: 0x20 }
  - { offsetInCU: 0xB03C, offset: 0x337D6, size: 0x8, addend: 0x0, symName: __ZNSt3__122__compressed_pair_elemIRNS_9allocatorI5BlockEELi1ELb0EE5__getB8ne180100Ev, symObjAddr: 0x4120, symBinAddr: 0x100010F90, symSize: 0x20 }
  - { offsetInCU: 0xB061, offset: 0x337FB, size: 0x8, addend: 0x0, symName: __ZNSt3__117__compressed_pairIP5BlockRNS_9allocatorIS1_EEE5firstB8ne180100Ev, symObjAddr: 0x4140, symBinAddr: 0x100010FB0, symSize: 0x20 }
  - { offsetInCU: 0xB085, offset: 0x3381F, size: 0x8, addend: 0x0, symName: __ZNSt3__116reverse_iteratorIP5BlockEC1B8ne180100ES2_, symObjAddr: 0x41D0, symBinAddr: 0x100011040, symSize: 0x30 }
  - { offsetInCU: 0xB0BD, offset: 0x33857, size: 0x8, addend: 0x0, symName: __ZNKSt3__116reverse_iteratorIP5BlockE4baseB8ne180100Ev, symObjAddr: 0x4200, symBinAddr: 0x100011070, symSize: 0x20 }
  - { offsetInCU: 0xB108, offset: 0x338A2, size: 0x8, addend: 0x0, symName: __ZNKSt3__111__move_loopINS_17_ClassicAlgPolicyEEclB8ne180100INS_16reverse_iteratorIP5BlockEES7_S7_EENS_4pairIT_T1_EES9_T0_SA_, symObjAddr: 0x46B0, symBinAddr: 0x100011510, symSize: 0xA0 }
  - { offsetInCU: 0xB178, offset: 0x33912, size: 0x8, addend: 0x0, symName: __ZNSt3__18_IterOpsINS_17_ClassicAlgPolicyEE11__iter_moveB8ne180100IRNS_16reverse_iteratorIP5BlockEELi0EEEDTclsr3stdE4movedeclsr3stdE7declvalIRT_EEEEOS9_, symObjAddr: 0x48D0, symBinAddr: 0x100011730, symSize: 0x20 }
  - { offsetInCU: 0xB1AA, offset: 0x33944, size: 0x8, addend: 0x0, symName: __ZNKSt3__116reverse_iteratorIP5BlockEdeB8ne180100Ev, symObjAddr: 0x48F0, symBinAddr: 0x100011750, symSize: 0x30 }
  - { offsetInCU: 0xB1DD, offset: 0x33977, size: 0x8, addend: 0x0, symName: __ZNSt3__116reverse_iteratorIP5BlockEppB8ne180100Ev, symObjAddr: 0x4920, symBinAddr: 0x100011780, symSize: 0x20 }
  - { offsetInCU: 0xB202, offset: 0x3399C, size: 0x8, addend: 0x0, symName: __ZNSt3__18_IterOpsINS_17_ClassicAlgPolicyEE25__validate_iter_referenceB8ne180100IRNS_16reverse_iteratorIP5BlockEEEEvv, symObjAddr: 0x4940, symBinAddr: 0x1000117A0, symSize: 0x10 }
  - { offsetInCU: 0xB220, offset: 0x339BA, size: 0x8, addend: 0x0, symName: __ZNSt3__118__unwrap_iter_implINS_16reverse_iteratorIP5BlockEELb0EE8__unwrapB8ne180100ES4_, symObjAddr: 0x4950, symBinAddr: 0x1000117B0, symSize: 0x20 }
  - { offsetInCU: 0xB248, offset: 0x339E2, size: 0x8, addend: 0x0, symName: __ZNSt3__14pairINS_16reverse_iteratorIP5BlockEES4_EC1B8ne180100IS4_S4_Li0EEEOT_OT0_, symObjAddr: 0x4970, symBinAddr: 0x1000117D0, symSize: 0x30 }
  - { offsetInCU: 0xB2A5, offset: 0x33A3F, size: 0x8, addend: 0x0, symName: __ZNSt3__14pairINS_16reverse_iteratorIP5BlockEES4_EC2B8ne180100IS4_S4_Li0EEEOT_OT0_, symObjAddr: 0x49A0, symBinAddr: 0x100011800, symSize: 0x40 }
  - { offsetInCU: 0xB303, offset: 0x33A9D, size: 0x8, addend: 0x0, symName: __ZNSt3__118__unwrap_iter_implINS_16reverse_iteratorIP5BlockEELb0EE8__rewrapB8ne180100ES4_S4_, symObjAddr: 0x49E0, symBinAddr: 0x100011840, symSize: 0x30 }
  - { offsetInCU: 0xB330, offset: 0x33ACA, size: 0x8, addend: 0x0, symName: __ZNSt3__116reverse_iteratorIP5BlockEC2B8ne180100ES2_, symObjAddr: 0x4A10, symBinAddr: 0x100011870, symSize: 0x30 }
  - { offsetInCU: 0xB367, offset: 0x33B01, size: 0x8, addend: 0x0, symName: __ZNSt3__114__split_bufferI5BlockRNS_9allocatorIS1_EEED2Ev, symObjAddr: 0x4A40, symBinAddr: 0x1000118A0, symSize: 0x70 }
  - { offsetInCU: 0xB393, offset: 0x33B2D, size: 0x8, addend: 0x0, symName: __ZNSt3__114__split_bufferI5BlockRNS_9allocatorIS1_EEE5clearB8ne180100Ev, symObjAddr: 0x4AB0, symBinAddr: 0x100011910, symSize: 0x20 }
  - { offsetInCU: 0xB3B8, offset: 0x33B52, size: 0x8, addend: 0x0, symName: __ZNKSt3__114__split_bufferI5BlockRNS_9allocatorIS1_EEE8capacityB8ne180100Ev, symObjAddr: 0x4AD0, symBinAddr: 0x100011930, symSize: 0x30 }
  - { offsetInCU: 0xB3DD, offset: 0x33B77, size: 0x8, addend: 0x0, symName: __ZNSt3__114__split_bufferI5BlockRNS_9allocatorIS1_EEE17__destruct_at_endB8ne180100EPS1_, symObjAddr: 0x4B00, symBinAddr: 0x100011960, symSize: 0x30 }
  - { offsetInCU: 0xB40F, offset: 0x33BA9, size: 0x8, addend: 0x0, symName: __ZNSt3__114__split_bufferI5BlockRNS_9allocatorIS1_EEE17__destruct_at_endB8ne180100EPS1_NS_17integral_constantIbLb0EEE, symObjAddr: 0x4B30, symBinAddr: 0x100011990, symSize: 0x80 }
  - { offsetInCU: 0xB450, offset: 0x33BEA, size: 0x8, addend: 0x0, symName: __ZNKSt3__114__split_bufferI5BlockRNS_9allocatorIS1_EEE9__end_capB8ne180100Ev, symObjAddr: 0x4BB0, symBinAddr: 0x100011A10, symSize: 0x20 }
  - { offsetInCU: 0xB475, offset: 0x33C0F, size: 0x8, addend: 0x0, symName: __ZNKSt3__117__compressed_pairIP5BlockRNS_9allocatorIS1_EEE5firstB8ne180100Ev, symObjAddr: 0x4BD0, symBinAddr: 0x100011A30, symSize: 0x20 }
  - { offsetInCU: 0x3762, offset: 0x37481, size: 0x8, addend: 0x0, symName: __ZN9SpaceshipC2Ev, symObjAddr: 0x0, symBinAddr: 0x100012430, symSize: 0xF0 }
  - { offsetInCU: 0x378C, offset: 0x374AB, size: 0x8, addend: 0x0, symName: __ZN9SpaceshipC1Ev, symObjAddr: 0x130, symBinAddr: 0x100012520, symSize: 0x20 }
  - { offsetInCU: 0x37B6, offset: 0x374D5, size: 0x8, addend: 0x0, symName: __ZN9SpaceshipD2Ev, symObjAddr: 0x150, symBinAddr: 0x100012540, symSize: 0xA0 }
  - { offsetInCU: 0x37E0, offset: 0x374FF, size: 0x8, addend: 0x0, symName: __ZN9SpaceshipD1Ev, symObjAddr: 0x200, symBinAddr: 0x1000125E0, symSize: 0x20 }
  - { offsetInCU: 0x380A, offset: 0x37529, size: 0x8, addend: 0x0, symName: __ZN9Spaceship4DrawEv, symObjAddr: 0x220, symBinAddr: 0x100012600, symSize: 0x60 }
  - { offsetInCU: 0x3830, offset: 0x3754F, size: 0x8, addend: 0x0, symName: __ZN9Spaceship8MoveLeftEv, symObjAddr: 0x280, symBinAddr: 0x100012660, symSize: 0x50 }
  - { offsetInCU: 0x3856, offset: 0x37575, size: 0x8, addend: 0x0, symName: __ZN9Spaceship9MoveRightEv, symObjAddr: 0x2D0, symBinAddr: 0x1000126B0, symSize: 0x80 }
  - { offsetInCU: 0x387C, offset: 0x3759B, size: 0x8, addend: 0x0, symName: __ZN9Spaceship9FireLaserEv, symObjAddr: 0x350, symBinAddr: 0x100012730, symSize: 0xE0 }
  - { offsetInCU: 0x38A2, offset: 0x375C1, size: 0x8, addend: 0x0, symName: __ZN9Spaceship7getRectEv, symObjAddr: 0x4B0, symBinAddr: 0x100012810, symSize: 0x40 }
  - { offsetInCU: 0x38C8, offset: 0x375E7, size: 0x8, addend: 0x0, symName: __ZN9Spaceship5ResetEv, symObjAddr: 0x4F0, symBinAddr: 0x100012850, symSize: 0x60 }
...
